SF:/home/justin/Projects/chess-vector-engine/src/ann.rs
FN:269,_RNvMs2_NtCsh06HHTBymxI_19chess_vector_engine3annNtB5_8ANNIndex5stats
FN:31,_RNvXNtCsh06HHTBymxI_19chess_vector_engine3annNtB2_9ANNResultNtNtCs9sjCchOt1K7_4core3cmp9PartialEq2eq
FN:39,_RNvXs0_NtCsh06HHTBymxI_19chess_vector_engine3annNtB5_9ANNResultNtNtCs9sjCchOt1K7_4core3cmp10PartialOrd11partial_cmp
FN:46,_RNvXs1_NtCsh06HHTBymxI_19chess_vector_engine3annNtB5_9ANNResultNtNtCs9sjCchOt1K7_4core3cmp3Ord3cmp
FN:114,_RNCNvMs2_NtCsh06HHTBymxI_19chess_vector_engine3annNtB7_8ANNIndex10search_lsh0B9_
FN:217,_RNCNvMs2_NtCsh06HHTBymxI_19chess_vector_engine3annNtB7_8ANNIndex12search_exact0B9_
FN:227,_RNCNvMs2_NtCsh06HHTBymxI_19chess_vector_engine3annNtB7_8ANNIndex12search_exacts_0B9_
FN:206,_RNCNvMs2_NtCsh06HHTBymxI_19chess_vector_engine3annNtB7_8ANNIndex13search_hybrid0B9_
FN:261,_RNCNvMs2_NtCsh06HHTBymxI_19chess_vector_engine3annNtB7_8ANNIndex14project_vector0B9_
FN:138,_RNCNvMs2_NtCsh06HHTBymxI_19chess_vector_engine3annNtB7_8ANNIndex24search_random_projection0B9_
FN:149,_RNCNvMs2_NtCsh06HHTBymxI_19chess_vector_engine3annNtB7_8ANNIndex24search_random_projections_0B9_
FN:313,_RNCNvNtCsh06HHTBymxI_19chess_vector_engine3ann17cosine_similarity0B5_
FN:315,_RNCNvNtCsh06HHTBymxI_19chess_vector_engine3ann17cosine_similaritys0_0B5_
FN:314,_RNCNvNtCsh06HHTBymxI_19chess_vector_engine3ann17cosine_similaritys_0B5_
FN:355,_RNvNtNtCsh06HHTBymxI_19chess_vector_engine3ann5testss_17test_ann_with_lsh
FN:368,_RNvNtNtCsh06HHTBymxI_19chess_vector_engine3ann5testss_19test_add_and_search
FN:385,_RNvNtNtCsh06HHTBymxI_19chess_vector_engine3ann5testss_22test_search_strategies
FN:347,_RNvNtNtCsh06HHTBymxI_19chess_vector_engine3ann5testss_23test_ann_index_creation
FN:361,_RNvNtNtCsh06HHTBymxI_19chess_vector_engine3ann5testss_32test_ann_with_random_projections
FN:79,_RNvMs2_NtCsh06HHTBymxI_19chess_vector_engine3annNtB5_8ANNIndex10add_vector
FN:110,_RNvMs2_NtCsh06HHTBymxI_19chess_vector_engine3annNtB5_8ANNIndex10search_lsh
FN:212,_RNvMs2_NtCsh06HHTBymxI_19chess_vector_engine3annNtB5_8ANNIndex12search_exact
FN:155,_RNvMs2_NtCsh06HHTBymxI_19chess_vector_engine3annNtB5_8ANNIndex13search_hybrid
FN:255,_RNvMs2_NtCsh06HHTBymxI_19chess_vector_engine3annNtB5_8ANNIndex14project_vector
FN:233,_RNvMs2_NtCsh06HHTBymxI_19chess_vector_engine3annNtB5_8ANNIndex23init_random_projections
FN:72,_RNvMs2_NtCsh06HHTBymxI_19chess_vector_engine3annNtB5_8ANNIndex23with_random_projections
FN:126,_RNvMs2_NtCsh06HHTBymxI_19chess_vector_engine3annNtB5_8ANNIndex24search_random_projection
FN:53,_RNvMs2_NtCsh06HHTBymxI_19chess_vector_engine3annNtB5_8ANNIndex3new
FN:95,_RNvMs2_NtCsh06HHTBymxI_19chess_vector_engine3annNtB5_8ANNIndex6search
FN:66,_RNvMs2_NtCsh06HHTBymxI_19chess_vector_engine3annNtB5_8ANNIndex8with_lsh
FN:312,_RNvNtCsh06HHTBymxI_19chess_vector_engine3ann17cosine_similarity
FN:325,_RNvNtCsh06HHTBymxI_19chess_vector_engine3ann27vectors_approximately_equal
FNDA:0,_RNvMs2_NtCsh06HHTBymxI_19chess_vector_engine3annNtB5_8ANNIndex5stats
FNDA:0,_RNvXNtCsh06HHTBymxI_19chess_vector_engine3annNtB2_9ANNResultNtNtCs9sjCchOt1K7_4core3cmp9PartialEq2eq
FNDA:0,_RNvXs0_NtCsh06HHTBymxI_19chess_vector_engine3annNtB5_9ANNResultNtNtCs9sjCchOt1K7_4core3cmp10PartialOrd11partial_cmp
FNDA:0,_RNvXs1_NtCsh06HHTBymxI_19chess_vector_engine3annNtB5_9ANNResultNtNtCs9sjCchOt1K7_4core3cmp3Ord3cmp
FNDA:1,_RNCNvMs2_NtCsh06HHTBymxI_19chess_vector_engine3annNtB7_8ANNIndex10search_lsh0B9_
FNDA:4,_RNCNvMs2_NtCsh06HHTBymxI_19chess_vector_engine3annNtB7_8ANNIndex12search_exact0B9_
FNDA:3,_RNCNvMs2_NtCsh06HHTBymxI_19chess_vector_engine3annNtB7_8ANNIndex12search_exacts_0B9_
FNDA:0,_RNCNvMs2_NtCsh06HHTBymxI_19chess_vector_engine3annNtB7_8ANNIndex13search_hybrid0B9_
FNDA:32,_RNCNvMs2_NtCsh06HHTBymxI_19chess_vector_engine3annNtB7_8ANNIndex14project_vector0B9_
FNDA:2,_RNCNvMs2_NtCsh06HHTBymxI_19chess_vector_engine3annNtB7_8ANNIndex24search_random_projection0B9_
FNDA:0,_RNCNvMs2_NtCsh06HHTBymxI_19chess_vector_engine3annNtB7_8ANNIndex24search_random_projections_0B9_
FNDA:24,_RNCNvNtCsh06HHTBymxI_19chess_vector_engine3ann17cosine_similarity0B5_
FNDA:24,_RNCNvNtCsh06HHTBymxI_19chess_vector_engine3ann17cosine_similaritys0_0B5_
FNDA:24,_RNCNvNtCsh06HHTBymxI_19chess_vector_engine3ann17cosine_similaritys_0B5_
FNDA:1,_RNvNtNtCsh06HHTBymxI_19chess_vector_engine3ann5testss_17test_ann_with_lsh
FNDA:1,_RNvNtNtCsh06HHTBymxI_19chess_vector_engine3ann5testss_19test_add_and_search
FNDA:1,_RNvNtNtCsh06HHTBymxI_19chess_vector_engine3ann5testss_22test_search_strategies
FNDA:1,_RNvNtNtCsh06HHTBymxI_19chess_vector_engine3ann5testss_23test_ann_index_creation
FNDA:1,_RNvNtNtCsh06HHTBymxI_19chess_vector_engine3ann5testss_32test_ann_with_random_projections
FNDA:4,_RNvMs2_NtCsh06HHTBymxI_19chess_vector_engine3annNtB5_8ANNIndex10add_vector
FNDA:1,_RNvMs2_NtCsh06HHTBymxI_19chess_vector_engine3annNtB5_8ANNIndex10search_lsh
FNDA:2,_RNvMs2_NtCsh06HHTBymxI_19chess_vector_engine3annNtB5_8ANNIndex12search_exact
FNDA:1,_RNvMs2_NtCsh06HHTBymxI_19chess_vector_engine3annNtB5_8ANNIndex13search_hybrid
FNDA:4,_RNvMs2_NtCsh06HHTBymxI_19chess_vector_engine3annNtB5_8ANNIndex14project_vector
FNDA:1,_RNvMs2_NtCsh06HHTBymxI_19chess_vector_engine3annNtB5_8ANNIndex23init_random_projections
FNDA:2,_RNvMs2_NtCsh06HHTBymxI_19chess_vector_engine3annNtB5_8ANNIndex23with_random_projections
FNDA:2,_RNvMs2_NtCsh06HHTBymxI_19chess_vector_engine3annNtB5_8ANNIndex24search_random_projection
FNDA:5,_RNvMs2_NtCsh06HHTBymxI_19chess_vector_engine3annNtB5_8ANNIndex3new
FNDA:5,_RNvMs2_NtCsh06HHTBymxI_19chess_vector_engine3annNtB5_8ANNIndex6search
FNDA:2,_RNvMs2_NtCsh06HHTBymxI_19chess_vector_engine3annNtB5_8ANNIndex8with_lsh
FNDA:7,_RNvNtCsh06HHTBymxI_19chess_vector_engine3ann17cosine_similarity
FNDA:2,_RNvNtCsh06HHTBymxI_19chess_vector_engine3ann27vectors_approximately_equal
FNF:32
FNH:26
DA:31,0
DA:32,0
DA:33,0
DA:39,0
DA:40,0
DA:41,0
DA:42,0
DA:46,0
DA:47,0
DA:48,0
DA:53,5
DA:54,5
DA:55,5
DA:56,5
DA:57,5
DA:58,5
DA:59,5
DA:60,5
DA:61,5
DA:62,5
DA:63,5
DA:66,2
DA:67,2
DA:68,2
DA:69,2
DA:72,2
DA:73,2
DA:74,2
DA:75,2
DA:76,2
DA:79,4
DA:80,4
DA:81,4
DA:82,1
DA:83,3
DA:85,4
DA:86,4
DA:89,4
DA:90,1
DA:91,3
DA:92,4
DA:95,5
DA:96,5
DA:97,5
DA:98,5
DA:99,5
DA:100,5
DA:101,5
DA:102,1
DA:103,1
DA:104,1
DA:105,2
DA:107,5
DA:110,1
DA:111,1
DA:112,1
DA:113,1
DA:114,1
DA:115,1
DA:116,1
DA:117,1
DA:118,1
DA:119,1
DA:121,0
DA:123,1
DA:126,2
DA:127,2
DA:128,0
DA:129,2
DA:130,2
DA:131,2
DA:132,2
DA:133,2
DA:134,2
DA:135,2
DA:136,2
DA:137,2
DA:138,2
DA:139,2
DA:140,2
DA:141,2
DA:142,2
DA:143,2
DA:144,2
DA:145,2
DA:146,2
DA:147,2
DA:148,2
DA:149,2
DA:150,2
DA:151,2
DA:152,2
DA:155,1
DA:156,1
DA:157,1
DA:160,1
DA:161,1
DA:162,2
DA:164,1
DA:165,1
DA:166,1
DA:167,1
DA:168,0
DA:171,0
DA:174,1
DA:175,1
DA:176,2
DA:178,1
DA:179,1
DA:180,1
DA:181,1
DA:182,0
DA:185,0
DA:188,1
DA:189,1
DA:190,1
DA:191,1
DA:192,0
DA:195,2
DA:196,1
DA:197,1
DA:198,1
DA:199,1
DA:200,1
DA:201,1
DA:202,1
DA:203,1
DA:204,1
DA:206,1
DA:207,1
DA:208,1
DA:209,1
DA:212,2
DA:213,2
DA:214,2
DA:215,2
DA:216,2
DA:217,4
DA:218,4
DA:219,4
DA:220,4
DA:221,4
DA:222,4
DA:223,4
DA:224,4
DA:225,2
DA:226,2
DA:227,3
DA:228,2
DA:229,2
DA:230,2
DA:233,1
DA:235,1
DA:236,1
DA:237,1
DA:238,1
DA:240,0
DA:243,1
DA:244,8
DA:245,8
DA:246,8
DA:248,1
DA:249,1
DA:250,1
DA:251,1
DA:252,1
DA:255,4
DA:256,4
DA:257,8
DA:258,8
DA:259,8
DA:260,8
DA:261,32
DA:262,8
DA:263,8
DA:264,8
DA:265,4
DA:266,4
DA:269,0
DA:270,0
DA:271,0
DA:272,0
DA:273,0
DA:275,0
DA:277,0
DA:278,0
DA:279,0
DA:280,0
DA:282,0
DA:285,0
DA:312,7
DA:313,24
DA:314,24
DA:315,24
DA:316,7
DA:317,7
DA:318,0
DA:320,7
DA:322,7
DA:325,2
DA:326,2
DA:327,0
DA:328,2
DA:329,2
DA:330,2
DA:331,8
DA:332,8
DA:333,0
DA:334,8
DA:336,2
DA:337,2
DA:347,1
DA:348,1
DA:349,1
DA:350,1
DA:351,1
DA:352,1
DA:355,1
DA:356,1
DA:357,1
DA:358,1
DA:361,1
DA:362,1
DA:363,1
DA:364,1
DA:365,1
DA:368,1
DA:369,1
DA:370,1
DA:371,1
DA:372,1
DA:373,1
DA:374,1
DA:375,1
DA:376,1
DA:377,1
DA:378,1
DA:379,1
DA:380,1
DA:381,1
DA:382,1
DA:385,1
DA:386,1
DA:387,1
DA:388,1
DA:389,1
DA:390,1
DA:391,1
DA:392,1
DA:393,1
DA:394,1
DA:395,1
DA:396,1
DA:397,1
DA:398,1
DA:399,1
DA:400,1
DA:401,1
BRF:0
BRH:0
LF:271
LH:236
end_of_record
SF:/home/justin/Projects/chess-vector-engine/src/auto_discovery.rs
FN:206,_RNCNvMNtCsh06HHTBymxI_19chess_vector_engine14auto_discoveryNtB4_13AutoDiscovery17extract_base_name0B6_
FN:84,_RNCNvMNtCsh06HHTBymxI_19chess_vector_engine14auto_discoveryNtB4_13AutoDiscovery24consolidate_by_base_name0B6_
FN:31,_RINvMNtCsh06HHTBymxI_19chess_vector_engine14auto_discoveryNtB3_13AutoDiscovery23discover_training_filespEB5_
FN:46,_RNCINvMNtCsh06HHTBymxI_19chess_vector_engine14auto_discoveryNtB5_13AutoDiscovery23discover_training_filespE0B7_
FN:49,_RNCNCINvMNtCsh06HHTBymxI_19chess_vector_engine14auto_discoveryNtB7_13AutoDiscovery23discover_training_filespE00B9_
FN:174,_RNCNvMNtCsh06HHTBymxI_19chess_vector_engine14auto_discoveryNtB4_13AutoDiscovery12analyze_file0B6_
FN:224,_RNCNvMNtCsh06HHTBymxI_19chess_vector_engine14auto_discoveryNtB4_13AutoDiscovery13detect_format0B6_
FN:169,_RNvMNtCsh06HHTBymxI_19chess_vector_engine14auto_discoveryNtB2_13AutoDiscovery12analyze_file
FN:349,_RNvMNtCsh06HHTBymxI_19chess_vector_engine14auto_discoveryNtB2_13AutoDiscovery12format_bytes
FN:221,_RNvMNtCsh06HHTBymxI_19chess_vector_engine14auto_discoveryNtB2_13AutoDiscovery13detect_format
FN:143,_RNvMNtCsh06HHTBymxI_19chess_vector_engine14auto_discoveryNtB2_13AutoDiscovery14scan_directory
FN:112,_RNvMNtCsh06HHTBymxI_19chess_vector_engine14auto_discoveryNtB2_13AutoDiscovery19cleanup_old_formats
FN:95,_RNvMNtCsh06HHTBymxI_19chess_vector_engine14auto_discoveryNtB2_13AutoDiscovery22get_cleanup_candidates
FN:261,_RNvMNtCsh06HHTBymxI_19chess_vector_engine14auto_discoveryNtB2_13AutoDiscovery25verify_json_training_data
FN:311,_RNvMNtCsh06HHTBymxI_19chess_vector_engine14auto_discoveryNtB2_13AutoDiscovery27verify_binary_training_data
FN:391,_RNvNtNtCsh06HHTBymxI_19chess_vector_engine14auto_discovery5testss_18test_consolidation
FN:384,_RNvNtNtCsh06HHTBymxI_19chess_vector_engine14auto_discovery5testss_20test_format_priority
FN:368,_RNvNtNtCsh06HHTBymxI_19chess_vector_engine14auto_discovery5testss_25test_base_name_extraction
FN:203,_RNvMNtCsh06HHTBymxI_19chess_vector_engine14auto_discoveryNtB2_13AutoDiscovery17extract_base_name
FN:69,_RNvMNtCsh06HHTBymxI_19chess_vector_engine14auto_discoveryNtB2_13AutoDiscovery24consolidate_by_base_name
FNDA:3,_RNCNvMNtCsh06HHTBymxI_19chess_vector_engine14auto_discoveryNtB4_13AutoDiscovery17extract_base_name0B6_
FNDA:1,_RNCNvMNtCsh06HHTBymxI_19chess_vector_engine14auto_discoveryNtB4_13AutoDiscovery24consolidate_by_base_name0B6_
FNDA:0,_RINvMNtCsh06HHTBymxI_19chess_vector_engine14auto_discoveryNtB3_13AutoDiscovery23discover_training_filespEB5_
FNDA:0,_RNCINvMNtCsh06HHTBymxI_19chess_vector_engine14auto_discoveryNtB5_13AutoDiscovery23discover_training_filespE0B7_
FNDA:0,_RNCNCINvMNtCsh06HHTBymxI_19chess_vector_engine14auto_discoveryNtB7_13AutoDiscovery23discover_training_filespE00B9_
FNDA:0,_RNCNvMNtCsh06HHTBymxI_19chess_vector_engine14auto_discoveryNtB4_13AutoDiscovery12analyze_file0B6_
FNDA:0,_RNCNvMNtCsh06HHTBymxI_19chess_vector_engine14auto_discoveryNtB4_13AutoDiscovery13detect_format0B6_
FNDA:0,_RNvMNtCsh06HHTBymxI_19chess_vector_engine14auto_discoveryNtB2_13AutoDiscovery12analyze_file
FNDA:0,_RNvMNtCsh06HHTBymxI_19chess_vector_engine14auto_discoveryNtB2_13AutoDiscovery12format_bytes
FNDA:0,_RNvMNtCsh06HHTBymxI_19chess_vector_engine14auto_discoveryNtB2_13AutoDiscovery13detect_format
FNDA:0,_RNvMNtCsh06HHTBymxI_19chess_vector_engine14auto_discoveryNtB2_13AutoDiscovery14scan_directory
FNDA:0,_RNvMNtCsh06HHTBymxI_19chess_vector_engine14auto_discoveryNtB2_13AutoDiscovery19cleanup_old_formats
FNDA:0,_RNvMNtCsh06HHTBymxI_19chess_vector_engine14auto_discoveryNtB2_13AutoDiscovery22get_cleanup_candidates
FNDA:0,_RNvMNtCsh06HHTBymxI_19chess_vector_engine14auto_discoveryNtB2_13AutoDiscovery25verify_json_training_data
FNDA:0,_RNvMNtCsh06HHTBymxI_19chess_vector_engine14auto_discoveryNtB2_13AutoDiscovery27verify_binary_training_data
FNDA:1,_RNvNtNtCsh06HHTBymxI_19chess_vector_engine14auto_discovery5testss_18test_consolidation
FNDA:1,_RNvNtNtCsh06HHTBymxI_19chess_vector_engine14auto_discovery5testss_20test_format_priority
FNDA:1,_RNvNtNtCsh06HHTBymxI_19chess_vector_engine14auto_discovery5testss_25test_base_name_extraction
FNDA:3,_RNvMNtCsh06HHTBymxI_19chess_vector_engine14auto_discoveryNtB2_13AutoDiscovery17extract_base_name
FNDA:1,_RNvMNtCsh06HHTBymxI_19chess_vector_engine14auto_discoveryNtB2_13AutoDiscovery24consolidate_by_base_name
FNF:20
FNH:7
DA:31,0
DA:32,0
DA:33,0
DA:34,0
DA:35,0
DA:36,0
DA:37,0
DA:38,0
DA:39,0
DA:40,0
DA:41,0
DA:42,0
DA:43,0
DA:46,0
DA:47,0
DA:48,0
DA:49,0
DA:50,0
DA:51,0
DA:52,0
DA:53,0
DA:54,0
DA:55,0
DA:56,0
DA:57,0
DA:58,0
DA:59,0
DA:60,0
DA:61,0
DA:62,0
DA:63,0
DA:65,0
DA:66,0
DA:69,1
DA:70,1
DA:73,3
DA:74,2
DA:75,2
DA:76,2
DA:77,2
DA:78,2
DA:80,1
DA:83,2
DA:84,1
DA:86,1
DA:87,1
DA:88,1
DA:91,1
DA:92,1
DA:95,0
DA:96,0
DA:97,0
DA:99,0
DA:100,0
DA:102,0
DA:103,0
DA:104,0
DA:105,0
DA:108,0
DA:109,0
DA:112,0
DA:113,0
DA:114,0
DA:115,0
DA:116,0
DA:117,0
DA:118,0
DA:119,0
DA:120,0
DA:121,0
DA:122,0
DA:123,0
DA:124,0
DA:125,0
DA:126,0
DA:127,0
DA:128,0
DA:129,0
DA:130,0
DA:132,0
DA:133,0
DA:134,0
DA:135,0
DA:139,0
DA:140,0
DA:143,0
DA:144,0
DA:145,0
DA:146,0
DA:147,0
DA:148,0
DA:149,0
DA:150,0
DA:152,0
DA:153,0
DA:154,0
DA:155,0
DA:156,0
DA:157,0
DA:158,0
DA:159,0
DA:160,0
DA:161,0
DA:162,0
DA:165,0
DA:166,0
DA:169,0
DA:170,0
DA:171,0
DA:174,0
DA:175,0
DA:176,0
DA:177,0
DA:178,0
DA:179,0
DA:181,0
DA:182,0
DA:183,0
DA:186,0
DA:189,0
DA:190,0
DA:191,0
DA:192,0
DA:193,0
DA:194,0
DA:195,0
DA:196,0
DA:197,0
DA:198,0
DA:199,0
DA:200,0
DA:203,3
DA:204,3
DA:205,3
DA:206,3
DA:207,3
DA:208,3
DA:209,3
DA:210,3
DA:211,3
DA:212,3
DA:213,3
DA:214,3
DA:215,3
DA:216,3
DA:217,3
DA:218,3
DA:221,0
DA:222,0
DA:223,0
DA:224,0
DA:225,0
DA:226,0
DA:227,0
DA:228,0
DA:229,0
DA:230,0
DA:231,0
DA:232,0
DA:233,0
DA:234,0
DA:235,0
DA:236,0
DA:237,0
DA:238,0
DA:239,0
DA:240,0
DA:241,0
DA:242,0
DA:243,0
DA:244,0
DA:245,0
DA:246,0
DA:247,0
DA:248,0
DA:249,0
DA:250,0
DA:252,0
DA:253,0
DA:254,0
DA:255,0
DA:257,0
DA:258,0
DA:261,0
DA:263,0
DA:264,0
DA:265,0
DA:267,0
DA:268,0
DA:269,0
DA:271,0
DA:272,0
DA:275,0
DA:276,0
DA:277,0
DA:278,0
DA:281,0
DA:282,0
DA:285,0
DA:289,0
DA:290,0
DA:291,0
DA:293,0
DA:295,0
DA:296,0
DA:297,0
DA:298,0
DA:299,0
DA:300,0
DA:301,0
DA:302,0
DA:303,0
DA:304,0
DA:307,0
DA:308,0
DA:311,0
DA:315,0
DA:316,0
DA:317,0
DA:319,0
DA:320,0
DA:321,0
DA:323,0
DA:324,0
DA:325,0
DA:327,0
DA:328,0
DA:329,0
DA:330,0
DA:331,0
DA:332,0
DA:333,0
DA:334,0
DA:335,0
DA:336,0
DA:339,0
DA:340,0
DA:341,0
DA:342,0
DA:343,0
DA:345,0
DA:346,0
DA:349,0
DA:351,0
DA:352,0
DA:354,0
DA:355,0
DA:356,0
DA:357,0
DA:359,0
DA:360,0
DA:368,1
DA:369,1
DA:370,1
DA:371,1
DA:372,1
DA:373,1
DA:374,1
DA:375,1
DA:376,1
DA:377,1
DA:378,1
DA:379,1
DA:380,1
DA:381,1
DA:384,1
DA:385,1
DA:386,1
DA:387,1
DA:388,1
DA:391,1
DA:392,1
DA:393,1
DA:394,1
DA:395,1
DA:396,1
DA:397,1
DA:398,1
DA:399,1
DA:400,1
DA:401,1
DA:402,1
DA:403,1
DA:404,1
DA:405,1
DA:406,1
DA:407,1
DA:408,1
DA:409,1
DA:410,1
DA:411,1
DA:412,1
DA:413,1
DA:414,1
BRF:0
BRH:0
LF:301
LH:77
end_of_record
SF:/home/justin/Projects/chess-vector-engine/src/bin/analyze.rs
FN:259,_RNvCslIfgqNcQgil_7analyze16analyze_material
FN:185,_RNvCslIfgqNcQgil_7analyze16analyze_position
FN:95,_RNvCslIfgqNcQgil_7analyze17load_opening_book
FN:336,_RNvCslIfgqNcQgil_7analyze22count_developed_pieces
FN:40,_RNvCslIfgqNcQgil_7analyze26initialize_analysis_engine
FN:302,_RNvCslIfgqNcQgil_7analyze27analyze_positional_features
FN:6,_RNvCslIfgqNcQgil_7analyze4main
FNDA:0,_RNvCslIfgqNcQgil_7analyze16analyze_material
FNDA:0,_RNvCslIfgqNcQgil_7analyze16analyze_position
FNDA:0,_RNvCslIfgqNcQgil_7analyze17load_opening_book
FNDA:0,_RNvCslIfgqNcQgil_7analyze22count_developed_pieces
FNDA:0,_RNvCslIfgqNcQgil_7analyze26initialize_analysis_engine
FNDA:0,_RNvCslIfgqNcQgil_7analyze27analyze_positional_features
FNDA:0,_RNvCslIfgqNcQgil_7analyze4main
FNF:7
FNH:0
DA:6,0
DA:7,0
DA:8,0
DA:9,0
DA:10,0
DA:11,0
DA:12,0
DA:13,0
DA:14,0
DA:15,0
DA:16,0
DA:17,0
DA:18,0
DA:19,0
DA:20,0
DA:21,0
DA:22,0
DA:23,0
DA:24,0
DA:25,0
DA:26,0
DA:27,0
DA:28,0
DA:29,0
DA:30,0
DA:31,0
DA:32,0
DA:33,0
DA:34,0
DA:35,0
DA:36,0
DA:37,0
DA:40,0
DA:41,0
DA:42,0
DA:43,0
DA:44,0
DA:45,0
DA:46,0
DA:47,0
DA:48,0
DA:49,0
DA:50,0
DA:51,0
DA:52,0
DA:53,0
DA:54,0
DA:55,0
DA:56,0
DA:57,0
DA:60,0
DA:61,0
DA:62,0
DA:63,0
DA:64,0
DA:65,0
DA:66,0
DA:67,0
DA:68,0
DA:69,0
DA:72,0
DA:73,0
DA:74,0
DA:75,0
DA:77,0
DA:78,0
DA:79,0
DA:80,0
DA:81,0
DA:82,0
DA:83,0
DA:84,0
DA:85,0
DA:86,0
DA:87,0
DA:88,0
DA:89,0
DA:92,0
DA:95,0
DA:96,0
DA:97,0
DA:98,0
DA:99,0
DA:100,0
DA:101,0
DA:102,0
DA:103,0
DA:104,0
DA:105,0
DA:106,0
DA:107,0
DA:108,0
DA:109,0
DA:110,0
DA:111,0
DA:112,0
DA:113,0
DA:114,0
DA:115,0
DA:116,0
DA:117,0
DA:118,0
DA:119,0
DA:120,0
DA:121,0
DA:122,0
DA:123,0
DA:124,0
DA:125,0
DA:126,0
DA:127,0
DA:128,0
DA:129,0
DA:130,0
DA:131,0
DA:132,0
DA:133,0
DA:134,0
DA:135,0
DA:136,0
DA:137,0
DA:138,0
DA:139,0
DA:140,0
DA:141,0
DA:142,0
DA:143,0
DA:144,0
DA:145,0
DA:146,0
DA:147,0
DA:148,0
DA:149,0
DA:150,0
DA:151,0
DA:152,0
DA:153,0
DA:154,0
DA:155,0
DA:156,0
DA:157,0
DA:158,0
DA:159,0
DA:160,0
DA:161,0
DA:162,0
DA:163,0
DA:164,0
DA:165,0
DA:166,0
DA:167,0
DA:168,0
DA:169,0
DA:170,0
DA:171,0
DA:172,0
DA:173,0
DA:174,0
DA:175,0
DA:176,0
DA:178,0
DA:179,0
DA:180,0
DA:181,0
DA:182,0
DA:185,0
DA:186,0
DA:187,0
DA:188,0
DA:189,0
DA:190,0
DA:191,0
DA:192,0
DA:193,0
DA:194,0
DA:197,0
DA:198,0
DA:199,0
DA:200,0
DA:201,0
DA:202,0
DA:203,0
DA:204,0
DA:205,0
DA:206,0
DA:207,0
DA:208,0
DA:209,0
DA:210,0
DA:211,0
DA:212,0
DA:213,0
DA:214,0
DA:215,0
DA:216,0
DA:217,0
DA:220,0
DA:221,0
DA:222,0
DA:223,0
DA:224,0
DA:225,0
DA:226,0
DA:231,0
DA:232,0
DA:233,0
DA:234,0
DA:235,0
DA:236,0
DA:237,0
DA:238,0
DA:239,0
DA:240,0
DA:243,0
DA:244,0
DA:245,0
DA:246,0
DA:247,0
DA:248,0
DA:249,0
DA:252,0
DA:253,0
DA:254,0
DA:255,0
DA:256,0
DA:259,0
DA:260,0
DA:264,0
DA:265,0
DA:266,0
DA:267,0
DA:268,0
DA:269,0
DA:270,0
DA:271,0
DA:272,0
DA:273,0
DA:274,0
DA:276,0
DA:277,0
DA:278,0
DA:279,0
DA:280,0
DA:281,0
DA:282,0
DA:283,0
DA:284,0
DA:285,0
DA:286,0
DA:287,0
DA:288,0
DA:289,0
DA:290,0
DA:291,0
DA:294,0
DA:295,0
DA:296,0
DA:297,0
DA:298,0
DA:299,0
DA:302,0
DA:303,0
DA:308,0
DA:309,0
DA:310,0
DA:311,0
DA:313,0
DA:314,0
DA:315,0
DA:316,0
DA:317,0
DA:318,0
DA:319,0
DA:322,0
DA:326,0
DA:327,0
DA:328,0
DA:329,0
DA:330,0
DA:331,0
DA:332,0
DA:333,0
DA:336,0
DA:339,0
DA:342,0
DA:343,0
DA:344,0
DA:345,0
DA:346,0
DA:347,0
DA:348,0
DA:350,0
DA:351,0
DA:352,0
DA:353,0
DA:354,0
DA:357,0
DA:358,0
BRF:0
BRH:0
LF:298
LH:0
end_of_record
SF:/home/justin/Projects/chess-vector-engine/src/bin/benchmark.rs
FN:92,_RINvCscPYehlb4FTQ_9benchmark24generate_random_positionpEB2_
FN:110,_RNvCscPYehlb4FTQ_9benchmark24test_similarity_accuracy
FN:6,_RNvCscPYehlb4FTQ_9benchmark4main
FNDA:0,_RINvCscPYehlb4FTQ_9benchmark24generate_random_positionpEB2_
FNDA:0,_RNvCscPYehlb4FTQ_9benchmark24test_similarity_accuracy
FNDA:0,_RNvCscPYehlb4FTQ_9benchmark4main
FNF:3
FNH:0
DA:6,0
DA:7,0
DA:8,0
DA:9,0
DA:10,0
DA:11,0
DA:12,0
DA:13,0
DA:14,0
DA:15,0
DA:16,0
DA:17,0
DA:18,0
DA:19,0
DA:20,0
DA:21,0
DA:22,0
DA:23,0
DA:24,0
DA:25,0
DA:26,0
DA:27,0
DA:28,0
DA:29,0
DA:30,0
DA:31,0
DA:32,0
DA:33,0
DA:34,0
DA:35,0
DA:36,0
DA:37,0
DA:38,0
DA:40,0
DA:41,0
DA:42,0
DA:43,0
DA:44,0
DA:45,0
DA:46,0
DA:47,0
DA:48,0
DA:49,0
DA:50,0
DA:51,0
DA:52,0
DA:55,0
DA:56,0
DA:57,0
DA:58,0
DA:59,0
DA:60,0
DA:61,0
DA:62,0
DA:63,0
DA:64,0
DA:65,0
DA:66,0
DA:67,0
DA:68,0
DA:69,0
DA:70,0
DA:71,0
DA:72,0
DA:73,0
DA:74,0
DA:75,0
DA:76,0
DA:77,0
DA:78,0
DA:79,0
DA:80,0
DA:81,0
DA:85,0
DA:86,0
DA:87,0
DA:88,0
DA:89,0
DA:92,0
DA:93,0
DA:94,0
DA:95,0
DA:96,0
DA:97,0
DA:98,0
DA:99,0
DA:100,0
DA:101,0
DA:102,0
DA:103,0
DA:106,0
DA:107,0
DA:110,0
DA:114,0
DA:115,0
DA:116,0
DA:117,0
DA:118,0
DA:119,0
DA:120,0
DA:121,0
DA:122,0
DA:123,0
DA:124,0
DA:125,0
DA:126,0
DA:127,0
DA:128,0
DA:129,0
DA:130,0
DA:131,0
DA:132,0
DA:133,0
DA:134,0
DA:135,0
DA:136,0
DA:137,0
DA:138,0
DA:139,0
DA:140,0
DA:141,0
DA:142,0
DA:143,0
DA:144,0
DA:145,0
DA:146,0
DA:148,0
DA:149,0
DA:150,0
DA:151,0
DA:152,0
DA:153,0
DA:154,0
DA:155,0
BRF:0
BRH:0
LF:134
LH:0
end_of_record
SF:/home/justin/Projects/chess-vector-engine/src/bin/creator_premium_demo.rs
FN:4,_RNvCsfPY2xAnPa8U_20creator_premium_demo4main
FNDA:0,_RNvCsfPY2xAnPa8U_20creator_premium_demo4main
FNF:1
FNH:0
DA:4,0
DA:5,0
DA:6,0
DA:7,0
DA:8,0
DA:9,0
DA:10,0
DA:11,0
DA:12,0
DA:13,0
DA:14,0
DA:15,0
DA:16,0
DA:17,0
DA:18,0
DA:19,0
DA:20,0
DA:21,0
DA:22,0
DA:23,0
DA:24,0
DA:25,0
DA:27,0
DA:28,0
DA:29,0
DA:33,0
DA:34,0
DA:35,0
DA:36,0
DA:37,0
DA:38,0
DA:39,0
DA:40,0
DA:41,0
DA:42,0
DA:43,0
DA:44,0
DA:45,0
DA:46,0
DA:47,0
DA:48,0
DA:49,0
DA:50,0
DA:52,0
DA:55,0
DA:56,0
DA:57,0
DA:58,0
DA:61,0
DA:62,0
DA:63,0
DA:64,0
DA:67,0
DA:68,0
DA:69,0
DA:70,0
DA:71,0
DA:72,0
DA:73,0
DA:74,0
DA:75,0
DA:76,0
DA:77,0
DA:78,0
DA:79,0
DA:80,0
DA:81,0
DA:82,0
DA:83,0
DA:84,0
DA:85,0
DA:86,0
DA:87,0
DA:89,0
DA:90,0
DA:91,0
DA:92,0
DA:94,0
DA:95,0
DA:96,0
DA:97,0
DA:100,0
DA:101,0
DA:102,0
DA:103,0
DA:104,0
DA:105,0
DA:107,0
DA:108,0
DA:109,0
DA:110,0
DA:113,0
DA:114,0
DA:115,0
DA:116,0
DA:118,0
DA:121,0
DA:124,0
DA:125,0
DA:126,0
DA:127,0
DA:128,0
DA:129,0
DA:130,0
DA:131,0
DA:132,0
DA:133,0
DA:136,0
DA:137,0
DA:138,0
DA:139,0
DA:140,0
DA:141,0
DA:142,0
DA:143,0
DA:144,0
DA:145,0
DA:146,0
DA:147,0
DA:148,0
DA:149,0
DA:150,0
DA:151,0
DA:152,0
DA:153,0
DA:154,0
DA:155,0
DA:156,0
DA:157,0
DA:158,0
DA:159,0
DA:160,0
DA:161,0
DA:162,0
DA:163,0
DA:164,0
DA:165,0
DA:166,0
DA:167,0
DA:168,0
DA:169,0
DA:170,0
DA:171,0
BRF:0
BRH:0
LF:143
LH:0
end_of_record
SF:/home/justin/Projects/chess-vector-engine/src/bin/debug_panic.rs
FN:5,_RNvCs61XweSnEGa2_11debug_panic4main
FNDA:0,_RNvCs61XweSnEGa2_11debug_panic4main
FNF:1
FNH:0
DA:5,0
DA:6,0
DA:7,0
DA:8,0
DA:9,0
DA:10,0
DA:11,0
DA:14,0
DA:15,0
DA:16,0
DA:17,0
DA:19,0
DA:20,0
DA:21,0
DA:26,0
DA:27,0
DA:28,0
DA:30,0
DA:31,0
DA:32,0
DA:35,0
DA:36,0
DA:37,0
DA:38,0
DA:39,0
DA:40,0
DA:41,0
DA:42,0
DA:43,0
DA:47,0
DA:48,0
DA:49,0
DA:51,0
DA:52,0
DA:53,0
DA:54,0
DA:55,0
DA:56,0
DA:57,0
DA:58,0
DA:61,0
DA:62,0
DA:63,0
DA:64,0
DA:65,0
DA:66,0
DA:67,0
DA:68,0
DA:69,0
DA:70,0
DA:71,0
DA:72,0
DA:76,0
DA:77,0
DA:78,0
DA:79,0
DA:80,0
BRF:0
BRH:0
LF:57
LH:0
end_of_record
SF:/home/justin/Projects/chess-vector-engine/src/bin/demo.rs
FN:5,_RNvCsdi9N9KZwMLG_4demo4main
FNDA:0,_RNvCsdi9N9KZwMLG_4demo4main
FNF:1
FNH:0
DA:5,0
DA:6,0
DA:7,0
DA:10,0
DA:11,0
DA:12,0
DA:13,0
DA:14,0
DA:15,0
DA:16,0
DA:17,0
DA:18,0
DA:19,0
DA:20,0
DA:23,0
DA:24,0
DA:29,0
DA:30,0
DA:31,0
DA:32,0
DA:33,0
DA:34,0
DA:35,0
DA:36,0
DA:37,0
DA:38,0
DA:39,0
DA:40,0
DA:41,0
DA:42,0
DA:43,0
DA:44,0
DA:45,0
DA:46,0
DA:47,0
DA:48,0
DA:49,0
DA:50,0
DA:51,0
DA:52,0
DA:53,0
DA:54,0
DA:55,0
DA:56,0
DA:57,0
DA:58,0
DA:59,0
DA:60,0
DA:61,0
DA:62,0
DA:63,0
DA:64,0
DA:65,0
DA:68,0
DA:69,0
DA:70,0
DA:71,0
DA:72,0
DA:74,0
DA:75,0
DA:76,0
DA:77,0
DA:78,0
DA:79,0
DA:80,0
DA:81,0
DA:82,0
DA:83,0
DA:84,0
DA:86,0
DA:87,0
DA:88,0
DA:89,0
DA:90,0
DA:91,0
DA:92,0
DA:93,0
DA:96,0
DA:97,0
DA:98,0
DA:99,0
DA:100,0
DA:101,0
DA:104,0
DA:105,0
DA:106,0
DA:107,0
DA:108,0
DA:109,0
DA:111,0
DA:112,0
DA:113,0
DA:114,0
DA:115,0
DA:116,0
DA:117,0
DA:118,0
DA:120,0
DA:121,0
DA:122,0
DA:125,0
DA:126,0
DA:127,0
DA:128,0
DA:129,0
DA:130,0
DA:131,0
DA:132,0
DA:133,0
DA:134,0
DA:135,0
DA:136,0
DA:137,0
DA:138,0
DA:139,0
DA:140,0
DA:141,0
DA:142,0
DA:143,0
DA:144,0
DA:145,0
DA:146,0
DA:147,0
DA:148,0
DA:149,0
DA:150,0
DA:151,0
DA:152,0
DA:153,0
DA:154,0
DA:155,0
DA:156,0
DA:157,0
DA:158,0
DA:159,0
DA:160,0
DA:161,0
DA:162,0
DA:163,0
DA:164,0
DA:165,0
DA:166,0
DA:167,0
BRF:0
BRH:0
LF:143
LH:0
end_of_record
SF:/home/justin/Projects/chess-vector-engine/src/bin/feature_demo.rs
FN:166,_RNvCsdU8MQ4wJt08_12feature_demo14find_test_file
FN:4,_RNvCsdU8MQ4wJt08_12feature_demo4main
FNDA:0,_RNvCsdU8MQ4wJt08_12feature_demo14find_test_file
FNDA:0,_RNvCsdU8MQ4wJt08_12feature_demo4main
FNF:2
FNH:0
DA:4,0
DA:5,0
DA:6,0
DA:7,0
DA:8,0
DA:9,0
DA:10,0
DA:11,0
DA:12,0
DA:13,0
DA:14,0
DA:15,0
DA:16,0
DA:17,0
DA:18,0
DA:19,0
DA:20,0
DA:21,0
DA:22,0
DA:23,0
DA:24,0
DA:25,0
DA:26,0
DA:27,0
DA:28,0
DA:29,0
DA:30,0
DA:31,0
DA:32,0
DA:33,0
DA:34,0
DA:35,0
DA:36,0
DA:37,0
DA:38,0
DA:39,0
DA:40,0
DA:41,0
DA:42,0
DA:43,0
DA:44,0
DA:45,0
DA:46,0
DA:49,0
DA:50,0
DA:51,0
DA:52,0
DA:57,0
DA:58,0
DA:59,0
DA:60,0
DA:61,0
DA:62,0
DA:63,0
DA:64,0
DA:65,0
DA:66,0
DA:67,0
DA:68,0
DA:69,0
DA:70,0
DA:71,0
DA:72,0
DA:73,0
DA:74,0
DA:75,0
DA:76,0
DA:77,0
DA:78,0
DA:79,0
DA:80,0
DA:81,0
DA:82,0
DA:83,0
DA:84,0
DA:85,0
DA:86,0
DA:87,0
DA:88,0
DA:89,0
DA:90,0
DA:91,0
DA:92,0
DA:93,0
DA:94,0
DA:95,0
DA:96,0
DA:97,0
DA:98,0
DA:99,0
DA:100,0
DA:101,0
DA:102,0
DA:103,0
DA:104,0
DA:105,0
DA:106,0
DA:107,0
DA:108,0
DA:109,0
DA:110,0
DA:111,0
DA:112,0
DA:113,0
DA:114,0
DA:115,0
DA:116,0
DA:117,0
DA:118,0
DA:119,0
DA:120,0
DA:121,0
DA:122,0
DA:123,0
DA:124,0
DA:125,0
DA:126,0
DA:127,0
DA:128,0
DA:129,0
DA:130,0
DA:131,0
DA:132,0
DA:133,0
DA:134,0
DA:135,0
DA:136,0
DA:137,0
DA:138,0
DA:139,0
DA:140,0
DA:141,0
DA:142,0
DA:143,0
DA:144,0
DA:145,0
DA:146,0
DA:148,0
DA:149,0
DA:150,0
DA:151,0
DA:153,0
DA:154,0
DA:155,0
DA:156,0
DA:157,0
DA:158,0
DA:159,0
DA:160,0
DA:163,0
DA:164,0
DA:166,0
DA:168,0
DA:170,0
DA:171,0
DA:173,0
DA:174,0
DA:175,0
DA:177,0
DA:178,0
BRF:0
BRH:0
LF:160
LH:0
end_of_record
SF:/home/justin/Projects/chess-vector-engine/src/bin/license_demo.rs
FN:7,_RNCNvCsfwCRvs7jMuX_12license_demo4main0B3_
FN:7,_RNvCsfwCRvs7jMuX_12license_demo4main
FN:244,_RNvNtCsfwCRvs7jMuX_12license_demo13license_utils17current_timestamp
FNDA:0,_RNCNvCsfwCRvs7jMuX_12license_demo4main0B3_
FNDA:0,_RNvCsfwCRvs7jMuX_12license_demo4main
FNDA:0,_RNvNtCsfwCRvs7jMuX_12license_demo13license_utils17current_timestamp
FNF:3
FNH:0
DA:7,0
DA:8,0
DA:9,0
DA:10,0
DA:11,0
DA:12,0
DA:13,0
DA:14,0
DA:15,0
DA:16,0
DA:17,0
DA:18,0
DA:19,0
DA:20,0
DA:21,0
DA:22,0
DA:23,0
DA:24,0
DA:25,0
DA:26,0
DA:27,0
DA:28,0
DA:29,0
DA:30,0
DA:31,0
DA:32,0
DA:33,0
DA:34,0
DA:35,0
DA:36,0
DA:37,0
DA:38,0
DA:39,0
DA:40,0
DA:41,0
DA:42,0
DA:43,0
DA:44,0
DA:45,0
DA:46,0
DA:47,0
DA:48,0
DA:49,0
DA:50,0
DA:51,0
DA:52,0
DA:53,0
DA:54,0
DA:55,0
DA:56,0
DA:57,0
DA:58,0
DA:59,0
DA:60,0
DA:61,0
DA:62,0
DA:63,0
DA:64,0
DA:65,0
DA:66,0
DA:67,0
DA:68,0
DA:69,0
DA:70,0
DA:71,0
DA:72,0
DA:73,0
DA:74,0
DA:75,0
DA:76,0
DA:77,0
DA:78,0
DA:79,0
DA:80,0
DA:81,0
DA:82,0
DA:83,0
DA:84,0
DA:85,0
DA:86,0
DA:87,0
DA:88,0
DA:89,0
DA:90,0
DA:91,0
DA:92,0
DA:93,0
DA:94,0
DA:95,0
DA:96,0
DA:97,0
DA:98,0
DA:99,0
DA:100,0
DA:101,0
DA:102,0
DA:103,0
DA:104,0
DA:105,0
DA:106,0
DA:107,0
DA:108,0
DA:109,0
DA:110,0
DA:111,0
DA:112,0
DA:113,0
DA:114,0
DA:115,0
DA:116,0
DA:117,0
DA:118,0
DA:119,0
DA:120,0
DA:121,0
DA:122,0
DA:123,0
DA:124,0
DA:125,0
DA:126,0
DA:127,0
DA:128,0
DA:129,0
DA:130,0
DA:131,0
DA:132,0
DA:133,0
DA:134,0
DA:135,0
DA:136,0
DA:137,0
DA:138,0
DA:139,0
DA:140,0
DA:141,0
DA:142,0
DA:143,0
DA:144,0
DA:145,0
DA:146,0
DA:147,0
DA:148,0
DA:149,0
DA:150,0
DA:151,0
DA:152,0
DA:153,0
DA:154,0
DA:155,0
DA:156,0
DA:157,0
DA:158,0
DA:159,0
DA:160,0
DA:161,0
DA:162,0
DA:163,0
DA:164,0
DA:165,0
DA:166,0
DA:167,0
DA:168,0
DA:169,0
DA:170,0
DA:171,0
DA:172,0
DA:173,0
DA:174,0
DA:175,0
DA:176,0
DA:177,0
DA:178,0
DA:179,0
DA:180,0
DA:181,0
DA:182,0
DA:183,0
DA:184,0
DA:185,0
DA:186,0
DA:187,0
DA:188,0
DA:189,0
DA:190,0
DA:191,0
DA:192,0
DA:193,0
DA:194,0
DA:195,0
DA:196,0
DA:197,0
DA:198,0
DA:199,0
DA:200,0
DA:201,0
DA:202,0
DA:203,0
DA:204,0
DA:205,0
DA:206,0
DA:207,0
DA:208,0
DA:209,0
DA:210,0
DA:211,0
DA:212,0
DA:213,0
DA:214,0
DA:215,0
DA:216,0
DA:217,0
DA:218,0
DA:219,0
DA:220,0
DA:221,0
DA:222,0
DA:223,0
DA:224,0
DA:225,0
DA:226,0
DA:227,0
DA:228,0
DA:229,0
DA:230,0
DA:231,0
DA:232,0
DA:233,0
DA:234,0
DA:235,0
DA:236,0
DA:237,0
DA:238,0
DA:244,0
DA:245,0
DA:246,0
DA:247,0
DA:248,0
DA:249,0
BRF:0
BRH:0
LF:425
LH:0
end_of_record
SF:/home/justin/Projects/chess-vector-engine/src/bin/play_stockfish.rs
FN:70,_RNCNvCsfLmih3XpX2X_14play_stockfish14convert_to_san0B3_
FN:82,_RNCNvCsfLmih3XpX2X_14play_stockfish14convert_to_sans_0B3_
FN:147,_RNCNvMCsfLmih3XpX2X_14play_stockfishNtB4_15StockfishPlayer3new0B4_
FN:415,_RNCNvMs0_CsfLmih3XpX2X_14play_stockfishNtB7_9GameState20calculate_statistics0B7_
FN:430,_RNCNvMs0_CsfLmih3XpX2X_14play_stockfishNtB7_9GameState20calculate_statisticss0_0B7_
FN:438,_RNCNvMs0_CsfLmih3XpX2X_14play_stockfishNtB7_9GameState20calculate_statisticss1_0B7_
FN:442,_RNCNvMs0_CsfLmih3XpX2X_14play_stockfishNtB7_9GameState20calculate_statisticss2_0B7_
FN:445,_RNCNvMs0_CsfLmih3XpX2X_14play_stockfishNtB7_9GameState20calculate_statisticss3_0B7_
FN:453,_RNCNvMs0_CsfLmih3XpX2X_14play_stockfishNtB7_9GameState20calculate_statisticss4_0B7_
FN:456,_RNCNvMs0_CsfLmih3XpX2X_14play_stockfishNtB7_9GameState20calculate_statisticss5_0B7_
FN:423,_RNCNvMs0_CsfLmih3XpX2X_14play_stockfishNtB7_9GameState20calculate_statisticss_0B7_
FN:23,_RNvCsfLmih3XpX2X_14play_stockfish14convert_to_san
FN:10,_RNvCsfLmih3XpX2X_14play_stockfish20normalize_evaluation
FN:776,_RNvCsfLmih3XpX2X_14play_stockfish26calculate_centipawn_losses
FN:801,_RNvCsfLmih3XpX2X_14play_stockfish4main
FN:473,_RNvCsfLmih3XpX2X_14play_stockfish9play_game
FN:189,_RNvMCsfLmih3XpX2X_14play_stockfishNtB2_15StockfishPlayer12send_command
FN:219,_RNvMCsfLmih3XpX2X_14play_stockfishNtB2_15StockfishPlayer13get_best_move
FN:195,_RNvMCsfLmih3XpX2X_14play_stockfishNtB2_15StockfishPlayer14wait_for_uciok
FN:207,_RNvMCsfLmih3XpX2X_14play_stockfishNtB2_15StockfishPlayer16wait_for_readyok
FN:141,_RNvMCsfLmih3XpX2X_14play_stockfishNtB2_15StockfishPlayer3new
FN:335,_RNvMs0_CsfLmih3XpX2X_14play_stockfishNtB5_9GameState12generate_pgn
FN:318,_RNvMs0_CsfLmih3XpX2X_14play_stockfishNtB5_9GameState13current_board
FN:410,_RNvMs0_CsfLmih3XpX2X_14play_stockfishNtB5_9GameState20calculate_statistics
FN:331,_RNvMs0_CsfLmih3XpX2X_14play_stockfishNtB5_9GameState20is_chess_vector_turn
FN:309,_RNvMs0_CsfLmih3XpX2X_14play_stockfishNtB5_9GameState3new
FN:322,_RNvMs0_CsfLmih3XpX2X_14play_stockfishNtB5_9GameState9make_move
FN:283,_RNvXs_CsfLmih3XpX2X_14play_stockfishNtB4_15StockfishPlayerNtNtNtCs9sjCchOt1K7_4core3ops4drop4Drop4drop
FNDA:0,_RNCNvCsfLmih3XpX2X_14play_stockfish14convert_to_san0B3_
FNDA:0,_RNCNvCsfLmih3XpX2X_14play_stockfish14convert_to_sans_0B3_
FNDA:0,_RNCNvMCsfLmih3XpX2X_14play_stockfishNtB4_15StockfishPlayer3new0B4_
FNDA:0,_RNCNvMs0_CsfLmih3XpX2X_14play_stockfishNtB7_9GameState20calculate_statistics0B7_
FNDA:0,_RNCNvMs0_CsfLmih3XpX2X_14play_stockfishNtB7_9GameState20calculate_statisticss0_0B7_
FNDA:0,_RNCNvMs0_CsfLmih3XpX2X_14play_stockfishNtB7_9GameState20calculate_statisticss1_0B7_
FNDA:0,_RNCNvMs0_CsfLmih3XpX2X_14play_stockfishNtB7_9GameState20calculate_statisticss2_0B7_
FNDA:0,_RNCNvMs0_CsfLmih3XpX2X_14play_stockfishNtB7_9GameState20calculate_statisticss3_0B7_
FNDA:0,_RNCNvMs0_CsfLmih3XpX2X_14play_stockfishNtB7_9GameState20calculate_statisticss4_0B7_
FNDA:0,_RNCNvMs0_CsfLmih3XpX2X_14play_stockfishNtB7_9GameState20calculate_statisticss5_0B7_
FNDA:0,_RNCNvMs0_CsfLmih3XpX2X_14play_stockfishNtB7_9GameState20calculate_statisticss_0B7_
FNDA:0,_RNvCsfLmih3XpX2X_14play_stockfish14convert_to_san
FNDA:0,_RNvCsfLmih3XpX2X_14play_stockfish20normalize_evaluation
FNDA:0,_RNvCsfLmih3XpX2X_14play_stockfish26calculate_centipawn_losses
FNDA:0,_RNvCsfLmih3XpX2X_14play_stockfish4main
FNDA:0,_RNvCsfLmih3XpX2X_14play_stockfish9play_game
FNDA:0,_RNvMCsfLmih3XpX2X_14play_stockfishNtB2_15StockfishPlayer12send_command
FNDA:0,_RNvMCsfLmih3XpX2X_14play_stockfishNtB2_15StockfishPlayer13get_best_move
FNDA:0,_RNvMCsfLmih3XpX2X_14play_stockfishNtB2_15StockfishPlayer14wait_for_uciok
FNDA:0,_RNvMCsfLmih3XpX2X_14play_stockfishNtB2_15StockfishPlayer16wait_for_readyok
FNDA:0,_RNvMCsfLmih3XpX2X_14play_stockfishNtB2_15StockfishPlayer3new
FNDA:0,_RNvMs0_CsfLmih3XpX2X_14play_stockfishNtB5_9GameState12generate_pgn
FNDA:0,_RNvMs0_CsfLmih3XpX2X_14play_stockfishNtB5_9GameState13current_board
FNDA:0,_RNvMs0_CsfLmih3XpX2X_14play_stockfishNtB5_9GameState20calculate_statistics
FNDA:0,_RNvMs0_CsfLmih3XpX2X_14play_stockfishNtB5_9GameState20is_chess_vector_turn
FNDA:0,_RNvMs0_CsfLmih3XpX2X_14play_stockfishNtB5_9GameState3new
FNDA:0,_RNvMs0_CsfLmih3XpX2X_14play_stockfishNtB5_9GameState9make_move
FNDA:0,_RNvXs_CsfLmih3XpX2X_14play_stockfishNtB4_15StockfishPlayerNtNtNtCs9sjCchOt1K7_4core3ops4drop4Drop4drop
FNF:28
FNH:0
DA:10,0
DA:11,0
DA:12,0
DA:13,0
DA:14,0
DA:15,0
DA:16,0
DA:17,0
DA:18,0
DA:19,0
DA:20,0
DA:23,0
DA:24,0
DA:25,0
DA:26,0
DA:27,0
DA:28,0
DA:29,0
DA:30,0
DA:31,0
DA:32,0
DA:33,0
DA:34,0
DA:35,0
DA:36,0
DA:37,0
DA:38,0
DA:39,0
DA:40,0
DA:41,0
DA:42,0
DA:43,0
DA:44,0
DA:45,0
DA:46,0
DA:47,0
DA:48,0
DA:49,0
DA:51,0
DA:52,0
DA:53,0
DA:54,0
DA:55,0
DA:56,0
DA:57,0
DA:58,0
DA:59,0
DA:60,0
DA:61,0
DA:63,0
DA:66,0
DA:67,0
DA:68,0
DA:69,0
DA:70,0
DA:71,0
DA:72,0
DA:73,0
DA:74,0
DA:75,0
DA:76,0
DA:77,0
DA:78,0
DA:80,0
DA:81,0
DA:82,0
DA:83,0
DA:84,0
DA:85,0
DA:86,0
DA:87,0
DA:88,0
DA:89,0
DA:90,0
DA:93,0
DA:94,0
DA:96,0
DA:98,0
DA:99,0
DA:100,0
DA:101,0
DA:102,0
DA:105,0
DA:106,0
DA:109,0
DA:110,0
DA:111,0
DA:112,0
DA:113,0
DA:114,0
DA:115,0
DA:116,0
DA:118,0
DA:121,0
DA:122,0
DA:123,0
DA:124,0
DA:125,0
DA:127,0
DA:128,0
DA:141,0
DA:142,0
DA:143,0
DA:144,0
DA:145,0
DA:146,0
DA:147,0
DA:148,0
DA:149,0
DA:150,0
DA:151,0
DA:152,0
DA:154,0
DA:155,0
DA:156,0
DA:157,0
DA:158,0
DA:160,0
DA:161,0
DA:162,0
DA:163,0
DA:164,0
DA:167,0
DA:168,0
DA:169,0
DA:170,0
DA:171,0
DA:172,0
DA:173,0
DA:174,0
DA:175,0
DA:176,0
DA:177,0
DA:178,0
DA:179,0
DA:180,0
DA:181,0
DA:182,0
DA:184,0
DA:185,0
DA:186,0
DA:187,0
DA:189,0
DA:190,0
DA:191,0
DA:192,0
DA:193,0
DA:195,0
DA:196,0
DA:198,0
DA:199,0
DA:200,0
DA:201,0
DA:202,0
DA:204,0
DA:205,0
DA:207,0
DA:208,0
DA:210,0
DA:211,0
DA:212,0
DA:213,0
DA:214,0
DA:216,0
DA:217,0
DA:219,0
DA:220,0
DA:221,0
DA:222,0
DA:223,0
DA:224,0
DA:225,0
DA:226,0
DA:229,0
DA:231,0
DA:232,0
DA:233,0
DA:236,0
DA:237,0
DA:238,0
DA:239,0
DA:240,0
DA:242,0
DA:243,0
DA:244,0
DA:245,0
DA:246,0
DA:247,0
DA:248,0
DA:249,0
DA:250,0
DA:251,0
DA:252,0
DA:253,0
DA:254,0
DA:255,0
DA:256,0
DA:257,0
DA:258,0
DA:259,0
DA:260,0
DA:263,0
DA:264,0
DA:265,0
DA:266,0
DA:267,0
DA:268,0
DA:269,0
DA:270,0
DA:271,0
DA:272,0
DA:275,0
DA:276,0
DA:277,0
DA:279,0
DA:283,0
DA:284,0
DA:285,0
DA:286,0
DA:309,0
DA:310,0
DA:311,0
DA:312,0
DA:313,0
DA:314,0
DA:315,0
DA:316,0
DA:318,0
DA:319,0
DA:320,0
DA:322,0
DA:323,0
DA:324,0
DA:325,0
DA:327,0
DA:329,0
DA:331,0
DA:332,0
DA:333,0
DA:335,0
DA:336,0
DA:337,0
DA:338,0
DA:339,0
DA:340,0
DA:341,0
DA:342,0
DA:343,0
DA:344,0
DA:345,0
DA:346,0
DA:347,0
DA:348,0
DA:349,0
DA:350,0
DA:351,0
DA:352,0
DA:353,0
DA:354,0
DA:355,0
DA:359,0
DA:360,0
DA:361,0
DA:362,0
DA:363,0
DA:364,0
DA:365,0
DA:366,0
DA:367,0
DA:369,0
DA:370,0
DA:371,0
DA:372,0
DA:373,0
DA:375,0
DA:376,0
DA:377,0
DA:378,0
DA:381,0
DA:382,0
DA:383,0
DA:384,0
DA:385,0
DA:386,0
DA:387,0
DA:388,0
DA:389,0
DA:390,0
DA:391,0
DA:392,0
DA:395,0
DA:396,0
DA:397,0
DA:398,0
DA:399,0
DA:400,0
DA:401,0
DA:402,0
DA:403,0
DA:406,0
DA:407,0
DA:408,0
DA:410,0
DA:411,0
DA:412,0
DA:413,0
DA:414,0
DA:415,0
DA:416,0
DA:417,0
DA:419,0
DA:421,0
DA:422,0
DA:423,0
DA:424,0
DA:425,0
DA:426,0
DA:427,0
DA:428,0
DA:429,0
DA:430,0
DA:431,0
DA:432,0
DA:434,0
DA:436,0
DA:437,0
DA:438,0
DA:439,0
DA:440,0
DA:441,0
DA:442,0
DA:443,0
DA:444,0
DA:445,0
DA:446,0
DA:447,0
DA:448,0
DA:450,0
DA:453,0
DA:454,0
DA:455,0
DA:456,0
DA:457,0
DA:458,0
DA:459,0
DA:461,0
DA:464,0
DA:465,0
DA:466,0
DA:467,0
DA:468,0
DA:469,0
DA:470,0
DA:473,0
DA:474,0
DA:475,0
DA:476,0
DA:477,0
DA:478,0
DA:479,0
DA:480,0
DA:481,0
DA:482,0
DA:483,0
DA:485,0
DA:488,0
DA:489,0
DA:490,0
DA:491,0
DA:492,0
DA:493,0
DA:494,0
DA:495,0
DA:496,0
DA:497,0
DA:498,0
DA:499,0
DA:500,0
DA:501,0
DA:502,0
DA:503,0
DA:504,0
DA:505,0
DA:506,0
DA:510,0
DA:511,0
DA:512,0
DA:513,0
DA:514,0
DA:515,0
DA:516,0
DA:517,0
DA:518,0
DA:519,0
DA:520,0
DA:521,0
DA:522,0
DA:523,0
DA:524,0
DA:525,0
DA:526,0
DA:527,0
DA:528,0
DA:529,0
DA:530,0
DA:531,0
DA:532,0
DA:533,0
DA:534,0
DA:535,0
DA:536,0
DA:537,0
DA:538,0
DA:539,0
DA:540,0
DA:541,0
DA:542,0
DA:543,0
DA:544,0
DA:545,0
DA:546,0
DA:547,0
DA:550,0
DA:551,0
DA:552,0
DA:553,0
DA:554,0
DA:556,0
DA:557,0
DA:558,0
DA:559,0
DA:561,0
DA:564,0
DA:567,0
DA:568,0
DA:569,0
DA:570,0
DA:571,0
DA:572,0
DA:573,0
DA:575,0
DA:576,0
DA:578,0
DA:581,0
DA:582,0
DA:584,0
DA:585,0
DA:587,0
DA:590,0
DA:594,0
DA:595,0
DA:596,0
DA:597,0
DA:598,0
DA:599,0
DA:600,0
DA:602,0
DA:603,0
DA:604,0
DA:605,0
DA:606,0
DA:608,0
DA:611,0
DA:612,0
DA:613,0
DA:614,0
DA:615,0
DA:616,0
DA:617,0
DA:618,0
DA:619,0
DA:620,0
DA:621,0
DA:623,0
DA:627,0
DA:628,0
DA:629,0
DA:630,0
DA:633,0
DA:634,0
DA:635,0
DA:637,0
DA:640,0
DA:644,0
DA:645,0
DA:646,0
DA:647,0
DA:648,0
DA:649,0
DA:650,0
DA:651,0
DA:652,0
DA:653,0
DA:654,0
DA:655,0
DA:656,0
DA:657,0
DA:658,0
DA:659,0
DA:660,0
DA:661,0
DA:662,0
DA:663,0
DA:664,0
DA:665,0
DA:666,0
DA:667,0
DA:668,0
DA:669,0
DA:670,0
DA:671,0
DA:672,0
DA:673,0
DA:674,0
DA:675,0
DA:676,0
DA:677,0
DA:678,0
DA:679,0
DA:680,0
DA:681,0
DA:682,0
DA:683,0
DA:684,0
DA:685,0
DA:686,0
DA:687,0
DA:689,0
DA:692,0
DA:693,0
DA:694,0
DA:695,0
DA:696,0
DA:701,0
DA:702,0
DA:704,0
DA:707,0
DA:708,0
DA:709,0
DA:710,0
DA:711,0
DA:712,0
DA:713,0
DA:714,0
DA:715,0
DA:716,0
DA:717,0
DA:718,0
DA:719,0
DA:720,0
DA:721,0
DA:722,0
DA:725,0
DA:726,0
DA:727,0
DA:728,0
DA:729,0
DA:730,0
DA:731,0
DA:735,0
DA:736,0
DA:737,0
DA:738,0
DA:739,0
DA:740,0
DA:741,0
DA:742,0
DA:743,0
DA:744,0
DA:745,0
DA:746,0
DA:747,0
DA:751,0
DA:752,0
DA:753,0
DA:754,0
DA:755,0
DA:756,0
DA:757,0
DA:758,0
DA:759,0
DA:760,0
DA:761,0
DA:762,0
DA:763,0
DA:764,0
DA:765,0
DA:766,0
DA:767,0
DA:768,0
DA:769,0
DA:770,0
DA:771,0
DA:772,0
DA:773,0
DA:774,0
DA:776,0
DA:777,0
DA:778,0
DA:779,0
DA:780,0
DA:785,0
DA:788,0
DA:792,0
DA:796,0
DA:797,0
DA:799,0
DA:801,0
DA:802,0
DA:803,0
DA:804,0
DA:805,0
DA:806,0
DA:807,0
DA:808,0
DA:809,0
DA:810,0
DA:811,0
DA:812,0
DA:813,0
DA:814,0
DA:815,0
DA:816,0
DA:817,0
DA:818,0
DA:819,0
DA:820,0
DA:821,0
DA:822,0
DA:823,0
DA:824,0
DA:825,0
DA:826,0
DA:827,0
DA:828,0
DA:829,0
DA:830,0
DA:831,0
DA:832,0
DA:833,0
DA:834,0
DA:835,0
DA:836,0
DA:837,0
DA:838,0
DA:839,0
DA:840,0
DA:841,0
DA:842,0
DA:843,0
DA:844,0
DA:845,0
DA:846,0
DA:847,0
DA:850,0
DA:851,0
DA:852,0
DA:853,0
DA:854,0
DA:855,0
DA:856,0
DA:858,0
DA:859,0
DA:860,0
DA:861,0
DA:862,0
DA:866,0
DA:867,0
DA:868,0
DA:869,0
DA:870,0
DA:871,0
DA:872,0
BRF:0
BRH:0
LF:688
LH:0
end_of_record
SF:/home/justin/Projects/chess-vector-engine/src/bin/play_stockfish_safe.rs
FN:72,_RNCNvCsbu9FXuro4rQ_19play_stockfish_safe14convert_to_san0B3_
FN:84,_RNCNvCsbu9FXuro4rQ_19play_stockfish_safe14convert_to_sans_0B3_
FN:149,_RNCNvMCsbu9FXuro4rQ_19play_stockfish_safeNtB4_15StockfishPlayer3new0B4_
FN:417,_RNCNvMs0_Csbu9FXuro4rQ_19play_stockfish_safeNtB7_9GameState20calculate_statistics0B7_
FN:432,_RNCNvMs0_Csbu9FXuro4rQ_19play_stockfish_safeNtB7_9GameState20calculate_statisticss0_0B7_
FN:440,_RNCNvMs0_Csbu9FXuro4rQ_19play_stockfish_safeNtB7_9GameState20calculate_statisticss1_0B7_
FN:444,_RNCNvMs0_Csbu9FXuro4rQ_19play_stockfish_safeNtB7_9GameState20calculate_statisticss2_0B7_
FN:447,_RNCNvMs0_Csbu9FXuro4rQ_19play_stockfish_safeNtB7_9GameState20calculate_statisticss3_0B7_
FN:455,_RNCNvMs0_Csbu9FXuro4rQ_19play_stockfish_safeNtB7_9GameState20calculate_statisticss4_0B7_
FN:458,_RNCNvMs0_Csbu9FXuro4rQ_19play_stockfish_safeNtB7_9GameState20calculate_statisticss5_0B7_
FN:425,_RNCNvMs0_Csbu9FXuro4rQ_19play_stockfish_safeNtB7_9GameState20calculate_statisticss_0B7_
FN:25,_RNvCsbu9FXuro4rQ_19play_stockfish_safe14convert_to_san
FN:12,_RNvCsbu9FXuro4rQ_19play_stockfish_safe20normalize_evaluation
FN:716,_RNvCsbu9FXuro4rQ_19play_stockfish_safe26calculate_centipawn_losses
FN:741,_RNvCsbu9FXuro4rQ_19play_stockfish_safe4main
FN:475,_RNvCsbu9FXuro4rQ_19play_stockfish_safe9play_game
FN:191,_RNvMCsbu9FXuro4rQ_19play_stockfish_safeNtB2_15StockfishPlayer12send_command
FN:221,_RNvMCsbu9FXuro4rQ_19play_stockfish_safeNtB2_15StockfishPlayer13get_best_move
FN:197,_RNvMCsbu9FXuro4rQ_19play_stockfish_safeNtB2_15StockfishPlayer14wait_for_uciok
FN:209,_RNvMCsbu9FXuro4rQ_19play_stockfish_safeNtB2_15StockfishPlayer16wait_for_readyok
FN:143,_RNvMCsbu9FXuro4rQ_19play_stockfish_safeNtB2_15StockfishPlayer3new
FN:337,_RNvMs0_Csbu9FXuro4rQ_19play_stockfish_safeNtB5_9GameState12generate_pgn
FN:320,_RNvMs0_Csbu9FXuro4rQ_19play_stockfish_safeNtB5_9GameState13current_board
FN:412,_RNvMs0_Csbu9FXuro4rQ_19play_stockfish_safeNtB5_9GameState20calculate_statistics
FN:333,_RNvMs0_Csbu9FXuro4rQ_19play_stockfish_safeNtB5_9GameState20is_chess_vector_turn
FN:311,_RNvMs0_Csbu9FXuro4rQ_19play_stockfish_safeNtB5_9GameState3new
FN:324,_RNvMs0_Csbu9FXuro4rQ_19play_stockfish_safeNtB5_9GameState9make_move
FN:285,_RNvXs_Csbu9FXuro4rQ_19play_stockfish_safeNtB4_15StockfishPlayerNtNtNtCs9sjCchOt1K7_4core3ops4drop4Drop4drop
FNDA:0,_RNCNvCsbu9FXuro4rQ_19play_stockfish_safe14convert_to_san0B3_
FNDA:0,_RNCNvCsbu9FXuro4rQ_19play_stockfish_safe14convert_to_sans_0B3_
FNDA:0,_RNCNvMCsbu9FXuro4rQ_19play_stockfish_safeNtB4_15StockfishPlayer3new0B4_
FNDA:0,_RNCNvMs0_Csbu9FXuro4rQ_19play_stockfish_safeNtB7_9GameState20calculate_statistics0B7_
FNDA:0,_RNCNvMs0_Csbu9FXuro4rQ_19play_stockfish_safeNtB7_9GameState20calculate_statisticss0_0B7_
FNDA:0,_RNCNvMs0_Csbu9FXuro4rQ_19play_stockfish_safeNtB7_9GameState20calculate_statisticss1_0B7_
FNDA:0,_RNCNvMs0_Csbu9FXuro4rQ_19play_stockfish_safeNtB7_9GameState20calculate_statisticss2_0B7_
FNDA:0,_RNCNvMs0_Csbu9FXuro4rQ_19play_stockfish_safeNtB7_9GameState20calculate_statisticss3_0B7_
FNDA:0,_RNCNvMs0_Csbu9FXuro4rQ_19play_stockfish_safeNtB7_9GameState20calculate_statisticss4_0B7_
FNDA:0,_RNCNvMs0_Csbu9FXuro4rQ_19play_stockfish_safeNtB7_9GameState20calculate_statisticss5_0B7_
FNDA:0,_RNCNvMs0_Csbu9FXuro4rQ_19play_stockfish_safeNtB7_9GameState20calculate_statisticss_0B7_
FNDA:0,_RNvCsbu9FXuro4rQ_19play_stockfish_safe14convert_to_san
FNDA:0,_RNvCsbu9FXuro4rQ_19play_stockfish_safe20normalize_evaluation
FNDA:0,_RNvCsbu9FXuro4rQ_19play_stockfish_safe26calculate_centipawn_losses
FNDA:0,_RNvCsbu9FXuro4rQ_19play_stockfish_safe4main
FNDA:0,_RNvCsbu9FXuro4rQ_19play_stockfish_safe9play_game
FNDA:0,_RNvMCsbu9FXuro4rQ_19play_stockfish_safeNtB2_15StockfishPlayer12send_command
FNDA:0,_RNvMCsbu9FXuro4rQ_19play_stockfish_safeNtB2_15StockfishPlayer13get_best_move
FNDA:0,_RNvMCsbu9FXuro4rQ_19play_stockfish_safeNtB2_15StockfishPlayer14wait_for_uciok
FNDA:0,_RNvMCsbu9FXuro4rQ_19play_stockfish_safeNtB2_15StockfishPlayer16wait_for_readyok
FNDA:0,_RNvMCsbu9FXuro4rQ_19play_stockfish_safeNtB2_15StockfishPlayer3new
FNDA:0,_RNvMs0_Csbu9FXuro4rQ_19play_stockfish_safeNtB5_9GameState12generate_pgn
FNDA:0,_RNvMs0_Csbu9FXuro4rQ_19play_stockfish_safeNtB5_9GameState13current_board
FNDA:0,_RNvMs0_Csbu9FXuro4rQ_19play_stockfish_safeNtB5_9GameState20calculate_statistics
FNDA:0,_RNvMs0_Csbu9FXuro4rQ_19play_stockfish_safeNtB5_9GameState20is_chess_vector_turn
FNDA:0,_RNvMs0_Csbu9FXuro4rQ_19play_stockfish_safeNtB5_9GameState3new
FNDA:0,_RNvMs0_Csbu9FXuro4rQ_19play_stockfish_safeNtB5_9GameState9make_move
FNDA:0,_RNvXs_Csbu9FXuro4rQ_19play_stockfish_safeNtB4_15StockfishPlayerNtNtNtCs9sjCchOt1K7_4core3ops4drop4Drop4drop
FNF:28
FNH:0
DA:12,0
DA:13,0
DA:14,0
DA:15,0
DA:16,0
DA:17,0
DA:18,0
DA:19,0
DA:20,0
DA:21,0
DA:22,0
DA:25,0
DA:26,0
DA:27,0
DA:28,0
DA:29,0
DA:30,0
DA:31,0
DA:32,0
DA:33,0
DA:34,0
DA:35,0
DA:36,0
DA:37,0
DA:38,0
DA:39,0
DA:40,0
DA:41,0
DA:42,0
DA:43,0
DA:44,0
DA:45,0
DA:46,0
DA:47,0
DA:48,0
DA:49,0
DA:50,0
DA:51,0
DA:53,0
DA:54,0
DA:55,0
DA:56,0
DA:57,0
DA:58,0
DA:59,0
DA:60,0
DA:61,0
DA:62,0
DA:63,0
DA:65,0
DA:68,0
DA:69,0
DA:70,0
DA:71,0
DA:72,0
DA:73,0
DA:74,0
DA:75,0
DA:76,0
DA:77,0
DA:78,0
DA:79,0
DA:80,0
DA:82,0
DA:83,0
DA:84,0
DA:85,0
DA:86,0
DA:87,0
DA:88,0
DA:89,0
DA:90,0
DA:91,0
DA:92,0
DA:95,0
DA:96,0
DA:98,0
DA:100,0
DA:101,0
DA:102,0
DA:103,0
DA:104,0
DA:107,0
DA:108,0
DA:111,0
DA:112,0
DA:113,0
DA:114,0
DA:115,0
DA:116,0
DA:117,0
DA:118,0
DA:120,0
DA:123,0
DA:124,0
DA:125,0
DA:126,0
DA:127,0
DA:129,0
DA:130,0
DA:143,0
DA:144,0
DA:145,0
DA:146,0
DA:147,0
DA:148,0
DA:149,0
DA:150,0
DA:151,0
DA:152,0
DA:153,0
DA:154,0
DA:156,0
DA:157,0
DA:158,0
DA:159,0
DA:160,0
DA:162,0
DA:163,0
DA:164,0
DA:165,0
DA:166,0
DA:169,0
DA:170,0
DA:171,0
DA:172,0
DA:173,0
DA:174,0
DA:175,0
DA:176,0
DA:177,0
DA:178,0
DA:179,0
DA:180,0
DA:181,0
DA:182,0
DA:183,0
DA:184,0
DA:186,0
DA:187,0
DA:188,0
DA:189,0
DA:191,0
DA:192,0
DA:193,0
DA:194,0
DA:195,0
DA:197,0
DA:198,0
DA:200,0
DA:201,0
DA:202,0
DA:203,0
DA:204,0
DA:206,0
DA:207,0
DA:209,0
DA:210,0
DA:212,0
DA:213,0
DA:214,0
DA:215,0
DA:216,0
DA:218,0
DA:219,0
DA:221,0
DA:222,0
DA:223,0
DA:224,0
DA:225,0
DA:226,0
DA:227,0
DA:228,0
DA:231,0
DA:233,0
DA:234,0
DA:235,0
DA:238,0
DA:239,0
DA:240,0
DA:241,0
DA:242,0
DA:244,0
DA:245,0
DA:246,0
DA:247,0
DA:248,0
DA:249,0
DA:250,0
DA:251,0
DA:252,0
DA:253,0
DA:254,0
DA:255,0
DA:256,0
DA:257,0
DA:258,0
DA:259,0
DA:260,0
DA:261,0
DA:262,0
DA:265,0
DA:266,0
DA:267,0
DA:268,0
DA:269,0
DA:270,0
DA:271,0
DA:272,0
DA:273,0
DA:274,0
DA:277,0
DA:278,0
DA:279,0
DA:281,0
DA:285,0
DA:286,0
DA:287,0
DA:288,0
DA:311,0
DA:312,0
DA:313,0
DA:314,0
DA:315,0
DA:316,0
DA:317,0
DA:318,0
DA:320,0
DA:321,0
DA:322,0
DA:324,0
DA:325,0
DA:326,0
DA:327,0
DA:329,0
DA:331,0
DA:333,0
DA:334,0
DA:335,0
DA:337,0
DA:338,0
DA:339,0
DA:340,0
DA:341,0
DA:342,0
DA:343,0
DA:344,0
DA:345,0
DA:346,0
DA:347,0
DA:348,0
DA:349,0
DA:350,0
DA:351,0
DA:352,0
DA:353,0
DA:354,0
DA:355,0
DA:356,0
DA:357,0
DA:361,0
DA:362,0
DA:363,0
DA:364,0
DA:365,0
DA:366,0
DA:367,0
DA:368,0
DA:369,0
DA:371,0
DA:372,0
DA:373,0
DA:374,0
DA:375,0
DA:377,0
DA:378,0
DA:379,0
DA:380,0
DA:383,0
DA:384,0
DA:385,0
DA:386,0
DA:387,0
DA:388,0
DA:389,0
DA:390,0
DA:391,0
DA:392,0
DA:393,0
DA:394,0
DA:397,0
DA:398,0
DA:399,0
DA:400,0
DA:401,0
DA:402,0
DA:403,0
DA:404,0
DA:405,0
DA:408,0
DA:409,0
DA:410,0
DA:412,0
DA:413,0
DA:414,0
DA:415,0
DA:416,0
DA:417,0
DA:418,0
DA:419,0
DA:421,0
DA:423,0
DA:424,0
DA:425,0
DA:426,0
DA:427,0
DA:428,0
DA:429,0
DA:430,0
DA:431,0
DA:432,0
DA:433,0
DA:434,0
DA:436,0
DA:438,0
DA:439,0
DA:440,0
DA:441,0
DA:442,0
DA:443,0
DA:444,0
DA:445,0
DA:446,0
DA:447,0
DA:448,0
DA:449,0
DA:450,0
DA:452,0
DA:455,0
DA:456,0
DA:457,0
DA:458,0
DA:459,0
DA:460,0
DA:461,0
DA:463,0
DA:466,0
DA:467,0
DA:468,0
DA:469,0
DA:470,0
DA:471,0
DA:472,0
DA:475,0
DA:476,0
DA:477,0
DA:478,0
DA:479,0
DA:480,0
DA:481,0
DA:482,0
DA:483,0
DA:484,0
DA:485,0
DA:487,0
DA:490,0
DA:491,0
DA:492,0
DA:493,0
DA:494,0
DA:495,0
DA:496,0
DA:497,0
DA:498,0
DA:499,0
DA:500,0
DA:501,0
DA:502,0
DA:503,0
DA:504,0
DA:505,0
DA:506,0
DA:507,0
DA:511,0
DA:512,0
DA:513,0
DA:514,0
DA:515,0
DA:516,0
DA:517,0
DA:518,0
DA:519,0
DA:520,0
DA:521,0
DA:522,0
DA:523,0
DA:524,0
DA:525,0
DA:526,0
DA:527,0
DA:528,0
DA:529,0
DA:530,0
DA:531,0
DA:532,0
DA:533,0
DA:534,0
DA:535,0
DA:536,0
DA:537,0
DA:538,0
DA:539,0
DA:540,0
DA:541,0
DA:542,0
DA:543,0
DA:544,0
DA:545,0
DA:546,0
DA:547,0
DA:548,0
DA:550,0
DA:551,0
DA:552,0
DA:553,0
DA:554,0
DA:555,0
DA:556,0
DA:558,0
DA:561,0
DA:562,0
DA:563,0
DA:564,0
DA:565,0
DA:566,0
DA:567,0
DA:568,0
DA:569,0
DA:570,0
DA:571,0
DA:573,0
DA:577,0
DA:578,0
DA:579,0
DA:580,0
DA:583,0
DA:584,0
DA:585,0
DA:587,0
DA:589,0
DA:593,0
DA:594,0
DA:595,0
DA:596,0
DA:597,0
DA:598,0
DA:599,0
DA:600,0
DA:601,0
DA:602,0
DA:603,0
DA:604,0
DA:605,0
DA:606,0
DA:607,0
DA:608,0
DA:609,0
DA:610,0
DA:611,0
DA:612,0
DA:613,0
DA:614,0
DA:615,0
DA:616,0
DA:617,0
DA:618,0
DA:619,0
DA:620,0
DA:621,0
DA:622,0
DA:623,0
DA:624,0
DA:625,0
DA:626,0
DA:627,0
DA:628,0
DA:629,0
DA:630,0
DA:631,0
DA:632,0
DA:633,0
DA:634,0
DA:635,0
DA:636,0
DA:638,0
DA:641,0
DA:642,0
DA:643,0
DA:644,0
DA:645,0
DA:646,0
DA:647,0
DA:648,0
DA:649,0
DA:650,0
DA:651,0
DA:652,0
DA:653,0
DA:654,0
DA:655,0
DA:656,0
DA:657,0
DA:658,0
DA:659,0
DA:660,0
DA:661,0
DA:662,0
DA:665,0
DA:666,0
DA:667,0
DA:668,0
DA:669,0
DA:670,0
DA:671,0
DA:675,0
DA:676,0
DA:677,0
DA:678,0
DA:679,0
DA:680,0
DA:681,0
DA:682,0
DA:683,0
DA:684,0
DA:685,0
DA:686,0
DA:687,0
DA:691,0
DA:692,0
DA:693,0
DA:694,0
DA:695,0
DA:696,0
DA:697,0
DA:698,0
DA:699,0
DA:700,0
DA:701,0
DA:702,0
DA:703,0
DA:704,0
DA:705,0
DA:706,0
DA:707,0
DA:708,0
DA:709,0
DA:710,0
DA:711,0
DA:712,0
DA:713,0
DA:714,0
DA:716,0
DA:717,0
DA:718,0
DA:719,0
DA:720,0
DA:725,0
DA:728,0
DA:732,0
DA:736,0
DA:737,0
DA:739,0
DA:741,0
DA:742,0
DA:743,0
DA:744,0
DA:745,0
DA:746,0
DA:747,0
DA:748,0
DA:749,0
DA:750,0
DA:751,0
DA:752,0
DA:753,0
DA:754,0
DA:755,0
DA:756,0
DA:757,0
DA:758,0
DA:759,0
DA:760,0
DA:761,0
DA:762,0
DA:763,0
DA:764,0
DA:765,0
DA:766,0
DA:767,0
DA:768,0
DA:769,0
DA:770,0
DA:771,0
DA:772,0
DA:773,0
DA:774,0
DA:775,0
DA:776,0
DA:777,0
DA:778,0
DA:779,0
DA:780,0
DA:781,0
DA:782,0
DA:783,0
DA:784,0
DA:785,0
DA:786,0
DA:787,0
DA:790,0
DA:791,0
DA:792,0
DA:793,0
DA:794,0
DA:795,0
DA:796,0
DA:798,0
DA:799,0
DA:800,0
DA:801,0
DA:802,0
DA:806,0
DA:807,0
DA:808,0
DA:809,0
DA:810,0
DA:811,0
DA:812,0
BRF:0
BRH:0
LF:653
LH:0
end_of_record
SF:/home/justin/Projects/chess-vector-engine/src/bin/uci_engine.rs
FN:37,_RNvCs6PYzrepGTo6_10uci_engine4main
FNDA:0,_RNvCs6PYzrepGTo6_10uci_engine4main
FNF:1
FNH:0
DA:37,0
DA:38,0
DA:39,0
BRF:0
BRH:0
LF:3
LH:0
end_of_record
SF:/home/justin/Projects/chess-vector-engine/src/features.rs
FN:82,_RNCNvMNtCsh06HHTBymxI_19chess_vector_engine8featuresNtB4_15FeatureRegistry21get_features_for_tier0B6_
FN:83,_RNCNvMNtCsh06HHTBymxI_19chess_vector_engine8featuresNtB4_15FeatureRegistry21get_features_for_tiers_0B6_
FN:79,_RNvMNtCsh06HHTBymxI_19chess_vector_engine8featuresNtB2_15FeatureRegistry21get_features_for_tier
FN:121,_RNvMs_NtCsh06HHTBymxI_19chess_vector_engine8featuresNtB4_14FeatureChecker15require_feature
FN:125,_RNvMs_NtCsh06HHTBymxI_19chess_vector_engine8featuresNtB4_14FeatureChecker16get_current_tier
FN:146,_RNvXs0_NtCsh06HHTBymxI_19chess_vector_engine8featuresNtB5_12FeatureErrorNtNtCs9sjCchOt1K7_4core3fmt7Display3fmt
FN:198,_RNvXs2_NtCsh06HHTBymxI_19chess_vector_engine8featuresNtB5_15FeatureRegistryNtNtCs9sjCchOt1K7_4core7default7Default7default
FN:204,_RNvXs3_NtCsh06HHTBymxI_19chess_vector_engine8featuresNtB5_14FeatureCheckerNtNtCs9sjCchOt1K7_4core7default7Default7default
FN:237,_RNvNtNtCsh06HHTBymxI_19chess_vector_engine8features5testss_16test_tier_access
FN:257,_RNvNtNtCsh06HHTBymxI_19chess_vector_engine8features5testss_20test_feature_checker
FN:214,_RNvNtNtCsh06HHTBymxI_19chess_vector_engine8features5testss_21test_feature_registry
FN:274,_RNvNtNtCsh06HHTBymxI_19chess_vector_engine8features5testss_27test_feature_error_messages
FN:69,_RNvMNtCsh06HHTBymxI_19chess_vector_engine8featuresNtB2_15FeatureRegistry13tier_includes
FN:57,_RNvMNtCsh06HHTBymxI_19chess_vector_engine8featuresNtB2_15FeatureRegistry16get_feature_tier
FN:61,_RNvMNtCsh06HHTBymxI_19chess_vector_engine8featuresNtB2_15FeatureRegistry20is_feature_available
FN:20,_RNvMNtCsh06HHTBymxI_19chess_vector_engine8featuresNtB2_15FeatureRegistry3new
FN:129,_RNvMs_NtCsh06HHTBymxI_19chess_vector_engine8featuresNtB4_14FeatureChecker12upgrade_tier
FN:103,_RNvMs_NtCsh06HHTBymxI_19chess_vector_engine8featuresNtB4_14FeatureChecker13check_feature
FN:96,_RNvMs_NtCsh06HHTBymxI_19chess_vector_engine8featuresNtB4_14FeatureChecker3new
FNDA:0,_RNCNvMNtCsh06HHTBymxI_19chess_vector_engine8featuresNtB4_15FeatureRegistry21get_features_for_tier0B6_
FNDA:0,_RNCNvMNtCsh06HHTBymxI_19chess_vector_engine8featuresNtB4_15FeatureRegistry21get_features_for_tiers_0B6_
FNDA:0,_RNvMNtCsh06HHTBymxI_19chess_vector_engine8featuresNtB2_15FeatureRegistry21get_features_for_tier
FNDA:0,_RNvMs_NtCsh06HHTBymxI_19chess_vector_engine8featuresNtB4_14FeatureChecker15require_feature
FNDA:0,_RNvMs_NtCsh06HHTBymxI_19chess_vector_engine8featuresNtB4_14FeatureChecker16get_current_tier
FNDA:0,_RNvXs0_NtCsh06HHTBymxI_19chess_vector_engine8featuresNtB5_12FeatureErrorNtNtCs9sjCchOt1K7_4core3fmt7Display3fmt
FNDA:0,_RNvXs2_NtCsh06HHTBymxI_19chess_vector_engine8featuresNtB5_15FeatureRegistryNtNtCs9sjCchOt1K7_4core7default7Default7default
FNDA:0,_RNvXs3_NtCsh06HHTBymxI_19chess_vector_engine8featuresNtB5_14FeatureCheckerNtNtCs9sjCchOt1K7_4core7default7Default7default
FNDA:1,_RNvNtNtCsh06HHTBymxI_19chess_vector_engine8features5testss_16test_tier_access
FNDA:1,_RNvNtNtCsh06HHTBymxI_19chess_vector_engine8features5testss_20test_feature_checker
FNDA:1,_RNvNtNtCsh06HHTBymxI_19chess_vector_engine8features5testss_21test_feature_registry
FNDA:1,_RNvNtNtCsh06HHTBymxI_19chess_vector_engine8features5testss_27test_feature_error_messages
FNDA:13,_RNvMNtCsh06HHTBymxI_19chess_vector_engine8featuresNtB2_15FeatureRegistry13tier_includes
FNDA:20,_RNvMNtCsh06HHTBymxI_19chess_vector_engine8featuresNtB2_15FeatureRegistry16get_feature_tier
FNDA:14,_RNvMNtCsh06HHTBymxI_19chess_vector_engine8featuresNtB2_15FeatureRegistry20is_feature_available
FNDA:41,_RNvMNtCsh06HHTBymxI_19chess_vector_engine8featuresNtB2_15FeatureRegistry3new
FNDA:1,_RNvMs_NtCsh06HHTBymxI_19chess_vector_engine8featuresNtB4_14FeatureChecker12upgrade_tier
FNDA:5,_RNvMs_NtCsh06HHTBymxI_19chess_vector_engine8featuresNtB4_14FeatureChecker13check_feature
FNDA:39,_RNvMs_NtCsh06HHTBymxI_19chess_vector_engine8featuresNtB4_14FeatureChecker3new
FNF:19
FNH:11
DA:20,41
DA:21,41
DA:22,41
DA:23,41
DA:24,41
DA:25,41
DA:26,41
DA:27,41
DA:28,41
DA:29,41
DA:30,41
DA:31,41
DA:32,41
DA:33,41
DA:34,41
DA:35,41
DA:36,41
DA:37,41
DA:38,41
DA:39,41
DA:40,41
DA:41,41
DA:42,41
DA:43,41
DA:44,41
DA:45,41
DA:46,41
DA:47,41
DA:48,41
DA:49,41
DA:50,41
DA:51,41
DA:52,41
DA:53,41
DA:54,41
DA:55,41
DA:57,20
DA:58,20
DA:59,20
DA:61,14
DA:62,14
DA:63,13
DA:64,1
DA:66,14
DA:69,13
DA:70,13
DA:71,2
DA:72,1
DA:73,2
DA:74,3
DA:75,5
DA:77,13
DA:79,0
DA:80,0
DA:81,0
DA:82,0
DA:83,0
DA:84,0
DA:85,0
DA:96,39
DA:97,39
DA:98,39
DA:99,39
DA:100,39
DA:101,39
DA:103,5
DA:104,5
DA:105,5
DA:106,5
DA:108,2
DA:110,3
DA:111,2
DA:112,2
DA:113,2
DA:114,2
DA:115,2
DA:116,1
DA:119,5
DA:121,0
DA:122,0
DA:123,0
DA:125,0
DA:126,0
DA:127,0
DA:129,1
DA:130,1
DA:131,1
DA:146,0
DA:147,0
DA:149,0
DA:150,0
DA:151,0
DA:152,0
DA:153,0
DA:154,0
DA:155,0
DA:156,0
DA:157,0
DA:159,0
DA:160,0
DA:163,0
DA:198,0
DA:199,0
DA:200,0
DA:204,0
DA:205,0
DA:206,0
DA:214,1
DA:215,1
DA:216,1
DA:217,1
DA:218,1
DA:219,1
DA:220,1
DA:221,1
DA:224,1
DA:225,1
DA:226,1
DA:227,1
DA:230,1
DA:231,1
DA:232,1
DA:233,1
DA:234,1
DA:237,1
DA:238,1
DA:239,1
DA:240,1
DA:241,1
DA:242,1
DA:243,1
DA:246,1
DA:247,1
DA:248,1
DA:251,1
DA:252,1
DA:253,1
DA:254,1
DA:257,1
DA:258,1
DA:259,1
DA:260,1
DA:261,1
DA:264,1
DA:267,1
DA:268,1
DA:269,1
DA:270,1
DA:271,1
DA:274,1
DA:275,1
DA:276,1
DA:277,1
DA:279,1
DA:280,1
DA:281,1
DA:282,1
DA:283,1
DA:284,1
DA:285,1
DA:287,0
DA:290,1
DA:291,1
DA:292,1
DA:294,0
DA:296,1
BRF:0
BRH:0
LF:168
LH:131
end_of_record
SF:/home/justin/Projects/chess-vector-engine/src/gpu_acceleration.rs
FN:29,_RNCNCNvMNtCsh06HHTBymxI_19chess_vector_engine16gpu_accelerationNtB6_14GPUAccelerator6global00B8_
FN:228,_RNCNvMNtCsh06HHTBymxI_19chess_vector_engine16gpu_accelerationNtB4_14GPUAccelerator16tensor_to_array20B6_
FN:28,_RNCNvMNtCsh06HHTBymxI_19chess_vector_engine16gpu_accelerationNtB4_14GPUAccelerator6global0B6_
FN:438,_RINvMNtCsh06HHTBymxI_19chess_vector_engine16gpu_accelerationNtB3_14GPUAccelerator23multi_gpu_batch_processppEB5_
FN:461,_RNCINvMNtCsh06HHTBymxI_19chess_vector_engine16gpu_accelerationNtB5_14GPUAccelerator23multi_gpu_batch_processppE0B7_
FN:408,_RNCNvMNtCsh06HHTBymxI_19chess_vector_engine16gpu_accelerationNtB4_14GPUAccelerator27multi_gpu_similarity_search0B6_
FN:476,_RNCNvXs_NtCsh06HHTBymxI_19chess_vector_engine16gpu_accelerationNtB6_14GPUAcceleratorNtNtCs9sjCchOt1K7_4core7default7Default7default0B8_
FN:294,_RNvMNtCsh06HHTBymxI_19chess_vector_engine16gpu_accelerationNtB2_14GPUAccelerator11add_vectors
FN:176,_RNvMNtCsh06HHTBymxI_19chess_vector_engine16gpu_accelerationNtB2_14GPUAccelerator11all_devices
FN:321,_RNvMNtCsh06HHTBymxI_19chess_vector_engine16gpu_accelerationNtB2_14GPUAccelerator11memory_info
FN:166,_RNvMNtCsh06HHTBymxI_19chess_vector_engine16gpu_accelerationNtB2_14GPUAccelerator12device_count
FN:181,_RNvMNtCsh06HHTBymxI_19chess_vector_engine16gpu_accelerationNtB2_14GPUAccelerator13switch_device
FN:196,_RNvMNtCsh06HHTBymxI_19chess_vector_engine16gpu_accelerationNtB2_14GPUAccelerator20current_device_index
FN:171,_RNvMNtCsh06HHTBymxI_19chess_vector_engine16gpu_accelerationNtB2_14GPUAccelerator22is_multi_gpu_available
FN:361,_RNvMNtCsh06HHTBymxI_19chess_vector_engine16gpu_accelerationNtB2_14GPUAccelerator27multi_gpu_similarity_search
FN:418,_RNvMNtCsh06HHTBymxI_19chess_vector_engine16gpu_accelerationNtB2_14GPUAccelerator32compute_cosine_similarity_tensor
FN:156,_RNvMNtCsh06HHTBymxI_19chess_vector_engine16gpu_accelerationNtB2_14GPUAccelerator6device
FN:475,_RNvXs_NtCsh06HHTBymxI_19chess_vector_engine16gpu_accelerationNtB4_14GPUAcceleratorNtNtCs9sjCchOt1K7_4core7default7Default7default
FN:151,_RNvMNtCsh06HHTBymxI_19chess_vector_engine16gpu_accelerationNtB2_14GPUAccelerator11device_type
FN:161,_RNvMNtCsh06HHTBymxI_19chess_vector_engine16gpu_accelerationNtB2_14GPUAccelerator14is_gpu_enabled
FN:201,_RNvMNtCsh06HHTBymxI_19chess_vector_engine16gpu_accelerationNtB2_14GPUAccelerator15array_to_tensor
FN:214,_RNvMNtCsh06HHTBymxI_19chess_vector_engine16gpu_accelerationNtB2_14GPUAccelerator15tensor_to_array
FN:207,_RNvMNtCsh06HHTBymxI_19chess_vector_engine16gpu_accelerationNtB2_14GPUAccelerator16array2_to_tensor
FN:220,_RNvMNtCsh06HHTBymxI_19chess_vector_engine16gpu_accelerationNtB2_14GPUAccelerator16tensor_to_array2
FN:263,_RNvMNtCsh06HHTBymxI_19chess_vector_engine16gpu_accelerationNtB2_14GPUAccelerator21cosine_similarity_cpu
FN:232,_RNvMNtCsh06HHTBymxI_19chess_vector_engine16gpu_accelerationNtB2_14GPUAccelerator23cosine_similarity_batch
FN:42,_RNvMNtCsh06HHTBymxI_19chess_vector_engine16gpu_accelerationNtB2_14GPUAccelerator3new
FN:27,_RNvMNtCsh06HHTBymxI_19chess_vector_engine16gpu_accelerationNtB2_14GPUAccelerator6global
FN:281,_RNvMNtCsh06HHTBymxI_19chess_vector_engine16gpu_accelerationNtB2_14GPUAccelerator6matmul
FN:81,_RNvMNtCsh06HHTBymxI_19chess_vector_engine16gpu_accelerationNtB2_14GPUAccelerator8try_cuda
FN:345,_RNvMNtCsh06HHTBymxI_19chess_vector_engine16gpu_accelerationNtB2_14GPUAccelerator9benchmark
FN:116,_RNvMNtCsh06HHTBymxI_19chess_vector_engine16gpu_accelerationNtB2_14GPUAccelerator9try_metal
FN:521,_RNvNtNtCsh06HHTBymxI_19chess_vector_engine16gpu_acceleration5testss_14test_benchmark
FN:497,_RNvNtNtCsh06HHTBymxI_19chess_vector_engine16gpu_acceleration5testss_22test_cosine_similarity
FN:510,_RNvNtNtCsh06HHTBymxI_19chess_vector_engine16gpu_acceleration5testss_26test_matrix_multiplication
FN:491,_RNvNtNtCsh06HHTBymxI_19chess_vector_engine16gpu_acceleration5testss_29test_gpu_accelerator_creation
FNDA:0,_RNCNCNvMNtCsh06HHTBymxI_19chess_vector_engine16gpu_accelerationNtB6_14GPUAccelerator6global00B8_
FNDA:0,_RNCNvMNtCsh06HHTBymxI_19chess_vector_engine16gpu_accelerationNtB4_14GPUAccelerator16tensor_to_array20B6_
FNDA:1,_RNCNvMNtCsh06HHTBymxI_19chess_vector_engine16gpu_accelerationNtB4_14GPUAccelerator6global0B6_
FNDA:0,_RINvMNtCsh06HHTBymxI_19chess_vector_engine16gpu_accelerationNtB3_14GPUAccelerator23multi_gpu_batch_processppEB5_
FNDA:0,_RNCINvMNtCsh06HHTBymxI_19chess_vector_engine16gpu_accelerationNtB5_14GPUAccelerator23multi_gpu_batch_processppE0B7_
FNDA:0,_RNCNvMNtCsh06HHTBymxI_19chess_vector_engine16gpu_accelerationNtB4_14GPUAccelerator27multi_gpu_similarity_search0B6_
FNDA:0,_RNCNvXs_NtCsh06HHTBymxI_19chess_vector_engine16gpu_accelerationNtB6_14GPUAcceleratorNtNtCs9sjCchOt1K7_4core7default7Default7default0B8_
FNDA:0,_RNvMNtCsh06HHTBymxI_19chess_vector_engine16gpu_accelerationNtB2_14GPUAccelerator11add_vectors
FNDA:0,_RNvMNtCsh06HHTBymxI_19chess_vector_engine16gpu_accelerationNtB2_14GPUAccelerator11all_devices
FNDA:0,_RNvMNtCsh06HHTBymxI_19chess_vector_engine16gpu_accelerationNtB2_14GPUAccelerator11memory_info
FNDA:0,_RNvMNtCsh06HHTBymxI_19chess_vector_engine16gpu_accelerationNtB2_14GPUAccelerator12device_count
FNDA:0,_RNvMNtCsh06HHTBymxI_19chess_vector_engine16gpu_accelerationNtB2_14GPUAccelerator13switch_device
FNDA:0,_RNvMNtCsh06HHTBymxI_19chess_vector_engine16gpu_accelerationNtB2_14GPUAccelerator20current_device_index
FNDA:0,_RNvMNtCsh06HHTBymxI_19chess_vector_engine16gpu_accelerationNtB2_14GPUAccelerator22is_multi_gpu_available
FNDA:0,_RNvMNtCsh06HHTBymxI_19chess_vector_engine16gpu_accelerationNtB2_14GPUAccelerator27multi_gpu_similarity_search
FNDA:0,_RNvMNtCsh06HHTBymxI_19chess_vector_engine16gpu_accelerationNtB2_14GPUAccelerator32compute_cosine_similarity_tensor
FNDA:0,_RNvMNtCsh06HHTBymxI_19chess_vector_engine16gpu_accelerationNtB2_14GPUAccelerator6device
FNDA:0,_RNvXs_NtCsh06HHTBymxI_19chess_vector_engine16gpu_accelerationNtB4_14GPUAcceleratorNtNtCs9sjCchOt1K7_4core7default7Default7default
FNDA:2,_RNvMNtCsh06HHTBymxI_19chess_vector_engine16gpu_accelerationNtB2_14GPUAccelerator11device_type
FNDA:30,_RNvMNtCsh06HHTBymxI_19chess_vector_engine16gpu_accelerationNtB2_14GPUAccelerator14is_gpu_enabled
FNDA:0,_RNvMNtCsh06HHTBymxI_19chess_vector_engine16gpu_accelerationNtB2_14GPUAccelerator15array_to_tensor
FNDA:0,_RNvMNtCsh06HHTBymxI_19chess_vector_engine16gpu_accelerationNtB2_14GPUAccelerator15tensor_to_array
FNDA:0,_RNvMNtCsh06HHTBymxI_19chess_vector_engine16gpu_accelerationNtB2_14GPUAccelerator16array2_to_tensor
FNDA:0,_RNvMNtCsh06HHTBymxI_19chess_vector_engine16gpu_accelerationNtB2_14GPUAccelerator16tensor_to_array2
FNDA:1,_RNvMNtCsh06HHTBymxI_19chess_vector_engine16gpu_accelerationNtB2_14GPUAccelerator21cosine_similarity_cpu
FNDA:1,_RNvMNtCsh06HHTBymxI_19chess_vector_engine16gpu_accelerationNtB2_14GPUAccelerator23cosine_similarity_batch
FNDA:2,_RNvMNtCsh06HHTBymxI_19chess_vector_engine16gpu_accelerationNtB2_14GPUAccelerator3new
FNDA:30,_RNvMNtCsh06HHTBymxI_19chess_vector_engine16gpu_accelerationNtB2_14GPUAccelerator6global
FNDA:2,_RNvMNtCsh06HHTBymxI_19chess_vector_engine16gpu_accelerationNtB2_14GPUAccelerator6matmul
FNDA:2,_RNvMNtCsh06HHTBymxI_19chess_vector_engine16gpu_accelerationNtB2_14GPUAccelerator8try_cuda
FNDA:1,_RNvMNtCsh06HHTBymxI_19chess_vector_engine16gpu_accelerationNtB2_14GPUAccelerator9benchmark
FNDA:2,_RNvMNtCsh06HHTBymxI_19chess_vector_engine16gpu_accelerationNtB2_14GPUAccelerator9try_metal
FNDA:1,_RNvNtNtCsh06HHTBymxI_19chess_vector_engine16gpu_acceleration5testss_14test_benchmark
FNDA:1,_RNvNtNtCsh06HHTBymxI_19chess_vector_engine16gpu_acceleration5testss_22test_cosine_similarity
FNDA:1,_RNvNtNtCsh06HHTBymxI_19chess_vector_engine16gpu_acceleration5testss_26test_matrix_multiplication
FNDA:1,_RNvNtNtCsh06HHTBymxI_19chess_vector_engine16gpu_acceleration5testss_29test_gpu_accelerator_creation
FNF:36
FNH:15
DA:27,30
DA:28,30
DA:29,1
DA:30,0
DA:31,0
DA:32,0
DA:33,0
DA:34,0
DA:35,0
DA:36,0
DA:37,1
DA:38,30
DA:39,30
DA:42,2
DA:43,2
DA:44,2
DA:45,2
DA:46,2
DA:47,2
DA:48,0
DA:49,0
DA:50,0
DA:52,2
DA:53,2
DA:54,2
DA:55,2
DA:56,2
DA:57,2
DA:58,2
DA:59,2
DA:60,2
DA:61,0
DA:62,0
DA:63,0
DA:65,2
DA:66,2
DA:67,2
DA:68,2
DA:69,2
DA:70,2
DA:71,2
DA:72,2
DA:73,2
DA:74,2
DA:75,2
DA:76,2
DA:77,2
DA:78,2
DA:81,2
DA:82,2
DA:83,2
DA:84,2
DA:87,2
DA:88,2
DA:89,0
DA:90,0
DA:91,0
DA:92,2
DA:96,2
DA:97,2
DA:98,0
DA:99,0
DA:100,0
DA:101,0
DA:102,0
DA:103,0
DA:104,0
DA:105,0
DA:106,0
DA:107,0
DA:108,2
DA:116,2
DA:117,2
DA:118,2
DA:119,2
DA:122,2
DA:123,2
DA:124,0
DA:125,0
DA:126,0
DA:127,2
DA:131,2
DA:132,2
DA:133,0
DA:134,0
DA:135,0
DA:136,0
DA:137,0
DA:138,0
DA:139,0
DA:140,0
DA:141,0
DA:142,0
DA:143,2
DA:151,2
DA:152,2
DA:153,2
DA:156,0
DA:157,0
DA:158,0
DA:161,30
DA:162,30
DA:163,30
DA:166,0
DA:167,0
DA:168,0
DA:171,0
DA:172,0
DA:173,0
DA:176,0
DA:177,0
DA:178,0
DA:181,0
DA:182,0
DA:183,0
DA:184,0
DA:185,0
DA:186,0
DA:187,0
DA:188,0
DA:189,0
DA:190,0
DA:191,0
DA:192,0
DA:193,0
DA:196,0
DA:197,0
DA:198,0
DA:201,0
DA:202,0
DA:203,0
DA:204,0
DA:207,0
DA:208,0
DA:209,0
DA:210,0
DA:211,0
DA:214,0
DA:215,0
DA:216,0
DA:217,0
DA:220,0
DA:221,0
DA:222,0
DA:223,0
DA:224,0
DA:225,0
DA:226,0
DA:227,0
DA:228,0
DA:229,0
DA:232,1
DA:233,1
DA:234,1
DA:235,1
DA:236,1
DA:237,1
DA:239,1
DA:240,0
DA:243,0
DA:244,0
DA:247,0
DA:248,0
DA:251,0
DA:252,0
DA:255,0
DA:256,0
DA:257,0
DA:259,0
DA:260,1
DA:263,1
DA:264,1
DA:265,1
DA:267,2
DA:268,2
DA:269,2
DA:270,2
DA:271,2
DA:273,0
DA:277,1
DA:278,1
DA:281,2
DA:282,2
DA:284,2
DA:285,0
DA:287,0
DA:288,0
DA:289,0
DA:290,0
DA:291,2
DA:294,0
DA:295,0
DA:296,0
DA:297,0
DA:298,0
DA:299,0
DA:300,0
DA:301,0
DA:303,0
DA:304,0
DA:305,0
DA:306,0
DA:307,0
DA:308,0
DA:311,0
DA:312,0
DA:313,0
DA:314,0
DA:317,0
DA:318,0
DA:321,0
DA:322,0
DA:323,0
DA:328,0
DA:336,0
DA:342,0
DA:345,1
DA:346,1
DA:347,1
DA:348,1
DA:349,1
DA:350,1
DA:351,1
DA:352,1
DA:353,1
DA:354,1
DA:355,1
DA:356,1
DA:357,1
DA:358,1
DA:361,0
DA:362,0
DA:363,0
DA:364,0
DA:365,0
DA:366,0
DA:368,0
DA:369,0
DA:370,0
DA:371,0
DA:372,0
DA:373,0
DA:374,0
DA:375,0
DA:376,0
DA:377,0
DA:380,0
DA:381,0
DA:382,0
DA:384,0
DA:385,0
DA:386,0
DA:387,0
DA:388,0
DA:389,0
DA:390,0
DA:391,0
DA:392,0
DA:393,0
DA:394,0
DA:396,0
DA:397,0
DA:398,0
DA:401,0
DA:402,0
DA:403,0
DA:404,0
DA:408,0
DA:409,0
DA:410,0
DA:411,0
DA:412,0
DA:414,0
DA:415,0
DA:418,0
DA:419,0
DA:420,0
DA:421,0
DA:422,0
DA:424,0
DA:425,0
DA:428,0
DA:429,0
DA:432,0
DA:433,0
DA:434,0
DA:435,0
DA:438,0
DA:439,0
DA:440,0
DA:441,0
DA:442,0
DA:443,0
DA:445,0
DA:446,0
DA:450,0
DA:451,0
DA:452,0
DA:453,0
DA:454,0
DA:455,0
DA:456,0
DA:457,0
DA:458,0
DA:459,0
DA:460,0
DA:461,0
DA:462,0
DA:463,0
DA:464,0
DA:465,0
DA:466,0
DA:467,0
DA:468,0
DA:469,0
DA:471,0
DA:475,0
DA:476,0
DA:477,0
DA:478,0
DA:479,0
DA:480,0
DA:481,0
DA:482,0
DA:491,1
DA:492,1
DA:493,1
DA:494,1
DA:497,1
DA:498,1
DA:499,1
DA:500,1
DA:501,1
DA:502,1
DA:503,1
DA:504,1
DA:505,1
DA:506,1
DA:507,1
DA:510,1
DA:511,1
DA:512,1
DA:513,1
DA:514,1
DA:515,1
DA:516,1
DA:517,1
DA:518,1
DA:521,1
DA:522,1
DA:523,1
DA:524,1
DA:525,1
DA:526,1
DA:527,1
DA:528,1
DA:529,1
DA:530,1
BRF:0
BRH:0
LF:368
LH:133
end_of_record
SF:/home/justin/Projects/chess-vector-engine/src/lib.rs
FN:2434,_RINvMs0_Csh06HHTBymxI_19chess_vector_engineNtB6_17ChessVectorEngine18enable_persistencepEB6_
FN:1398,_RINvMs0_Csh06HHTBymxI_19chess_vector_engineNtB6_17ChessVectorEngine18load_license_cachepEB6_
FN:1409,_RINvMs0_Csh06HHTBymxI_19chess_vector_engineNtB6_17ChessVectorEngine18save_license_cachepEB6_
FN:2566,_RINvMs0_Csh06HHTBymxI_19chess_vector_engineNtB6_17ChessVectorEngine20new_with_persistencepEB6_
FN:764,_RINvMs0_Csh06HHTBymxI_19chess_vector_engineNtB6_17ChessVectorEngine23load_training_data_mmappEB6_
FN:616,_RINvMs0_Csh06HHTBymxI_19chess_vector_engineNtB6_17ChessVectorEngine25save_training_data_binarypEB6_
FN:1124,_RINvMs0_Csh06HHTBymxI_19chess_vector_engineNtB6_17ChessVectorEngine26load_lichess_puzzles_basicpEB6_
FN:804,_RINvMs0_Csh06HHTBymxI_19chess_vector_engineNtB6_17ChessVectorEngine26load_training_data_msgpackpEB6_
FN:1508,_RINvMs0_Csh06HHTBymxI_19chess_vector_engineNtB6_17ChessVectorEngine26ultra_fast_load_any_formatpEB6_
FN:1105,_RINvMs0_Csh06HHTBymxI_19chess_vector_engineNtB6_17ChessVectorEngine28load_lichess_puzzles_premiumpEB6_
FN:890,_RINvMs0_Csh06HHTBymxI_19chess_vector_engineNtB6_17ChessVectorEngine29load_training_data_compressedpEB6_
FN:827,_RINvMs0_Csh06HHTBymxI_19chess_vector_engineNtB6_17ChessVectorEngine33load_training_data_streaming_jsonpEB6_
FN:1530,_RINvMs0_Csh06HHTBymxI_19chess_vector_engineNtB6_17ChessVectorEngine35load_training_data_streaming_binarypEB6_
FN:1547,_RINvMs0_Csh06HHTBymxI_19chess_vector_engineNtB6_17ChessVectorEngine36load_training_data_streaming_json_v2pEB6_
FN:854,_RNCINvMs0_Csh06HHTBymxI_19chess_vector_engineNtB8_17ChessVectorEngine33load_training_data_streaming_jsonpE0B8_
FN:881,_RNCINvMs0_Csh06HHTBymxI_19chess_vector_engineNtB8_17ChessVectorEngine33load_training_data_streaming_jsonpEs_0B8_
FN:858,_RNCNCINvMs0_Csh06HHTBymxI_19chess_vector_engineNtBa_17ChessVectorEngine33load_training_data_streaming_jsonpE00Ba_
FN:859,_RNCNCINvMs0_Csh06HHTBymxI_19chess_vector_engineNtBa_17ChessVectorEngine33load_training_data_streaming_jsonpE0s_0Ba_
FN:1867,_RNCNvMs0_Csh06HHTBymxI_19chess_vector_engineNtB7_17ChessVectorEngine15convert_to_mmap0B7_
FN:1884,_RNCNvMs0_Csh06HHTBymxI_19chess_vector_engineNtB7_17ChessVectorEngine15convert_to_mmaps_0B7_
FN:1374,_RNCNvMs0_Csh06HHTBymxI_19chess_vector_engineNtB7_17ChessVectorEngine16activate_license0B7_
FN:2465,_RNCNvMs0_Csh06HHTBymxI_19chess_vector_engineNtB7_17ChessVectorEngine16save_to_database0B7_
FN:1652,_RNCNvMs0_Csh06HHTBymxI_19chess_vector_engineNtB7_17ChessVectorEngine18convert_to_msgpack0B7_
FN:1669,_RNCNvMs0_Csh06HHTBymxI_19chess_vector_engineNtB7_17ChessVectorEngine18convert_to_msgpacks_0B7_
FN:2509,_RNCNvMs0_Csh06HHTBymxI_19chess_vector_engineNtB7_17ChessVectorEngine18load_from_database0B7_
FN:2530,_RNCNvMs0_Csh06HHTBymxI_19chess_vector_engineNtB7_17ChessVectorEngine18load_from_databases_0B7_
FN:1192,_RNCNvMs0_Csh06HHTBymxI_19chess_vector_engineNtB7_17ChessVectorEngine18new_with_fast_load0B7_
FN:1388,_RNCNvMs0_Csh06HHTBymxI_19chess_vector_engineNtB7_17ChessVectorEngine22check_licensed_feature0B7_
FN:1946,_RNCNvMs0_Csh06HHTBymxI_19chess_vector_engineNtB7_17ChessVectorEngine22convert_json_to_binary0B7_
FN:1075,_RNCNvMs0_Csh06HHTBymxI_19chess_vector_engineNtB7_17ChessVectorEngine23auto_load_training_data0B7_
FN:1081,_RNCNvMs0_Csh06HHTBymxI_19chess_vector_engineNtB7_17ChessVectorEngine23auto_load_training_datas_0B7_
FN:1591,_RNCNvMs0_Csh06HHTBymxI_19chess_vector_engineNtB7_17ChessVectorEngine24new_for_massive_datasets0B7_
FN:2641,_RNCNvMs0_Csh06HHTBymxI_19chess_vector_engineNtB7_17ChessVectorEngine26is_parallel_search_enabled0B7_
FN:2012,_RNCNvMs0_Csh06HHTBymxI_19chess_vector_engineNtB7_17ChessVectorEngine9lsh_stats0B7_
FN:239,_RNvMs0_Csh06HHTBymxI_19chess_vector_engineNtB5_17ChessVectorEngine12new_adaptive
FN:270,_RNvMs0_Csh06HHTBymxI_19chess_vector_engineNtB5_17ChessVectorEngine12new_with_lsh
FN:223,_RNvMs0_Csh06HHTBymxI_19chess_vector_engineNtB5_17ChessVectorEngine12upgrade_tier
FN:2665,_RNvMs0_Csh06HHTBymxI_19chess_vector_engineNtB5_17ChessVectorEngine13hybrid_config
FN:211,_RNvMs0_Csh06HHTBymxI_19chess_vector_engineNtB5_17ChessVectorEngine13new_with_tier
FN:1822,_RNvMs0_Csh06HHTBymxI_19chess_vector_engineNtB5_17ChessVectorEngine15convert_to_mmap
FN:1765,_RNvMs0_Csh06HHTBymxI_19chess_vector_engineNtB5_17ChessVectorEngine15convert_to_zstd
FN:481,_RNvMs0_Csh06HHTBymxI_19chess_vector_engineNtB5_17ChessVectorEngine15encode_position
FN:233,_RNvMs0_Csh06HHTBymxI_19chess_vector_engineNtB5_17ChessVectorEngine15require_feature
FN:1374,_RNvMs0_Csh06HHTBymxI_19chess_vector_engineNtB5_17ChessVectorEngine16activate_license
FN:218,_RNvMs0_Csh06HHTBymxI_19chess_vector_engineNtB5_17ChessVectorEngine16get_feature_tier
FN:1360,_RNvMs0_Csh06HHTBymxI_19chess_vector_engineNtB5_17ChessVectorEngine16new_with_license
FN:2445,_RNvMs0_Csh06HHTBymxI_19chess_vector_engineNtB5_17ChessVectorEngine16save_to_database
FN:2176,_RNvMs0_Csh06HHTBymxI_19chess_vector_engineNtB5_17ChessVectorEngine16set_opening_book
FN:2779,_RNvMs0_Csh06HHTBymxI_19chess_vector_engineNtB5_17ChessVectorEngine18adaptive_self_play
FN:1612,_RNvMs0_Csh06HHTBymxI_19chess_vector_engineNtB5_17ChessVectorEngine18convert_to_msgpack
FN:2497,_RNvMs0_Csh06HHTBymxI_19chess_vector_engineNtB5_17ChessVectorEngine18load_from_database
FN:1145,_RNvMs0_Csh06HHTBymxI_19chess_vector_engineNtB5_17ChessVectorEngine18new_with_auto_load
FN:1169,_RNvMs0_Csh06HHTBymxI_19chess_vector_engineNtB5_17ChessVectorEngine18new_with_fast_load
FN:2675,_RNvMs0_Csh06HHTBymxI_19chess_vector_engineNtB5_17ChessVectorEngine18self_play_training
FN:2130,_RNvMs0_Csh06HHTBymxI_19chess_vector_engineNtB5_17ChessVectorEngine19is_manifold_enabled
FN:1479,_RNvMs0_Csh06HHTBymxI_19chess_vector_engineNtB5_17ChessVectorEngine19load_file_by_format
FN:486,_RNvMs0_Csh06HHTBymxI_19chess_vector_engineNtB5_17ChessVectorEngine20calculate_similarity
FN:2705,_RNvMs0_Csh06HHTBymxI_19chess_vector_engineNtB5_17ChessVectorEngine20continuous_self_play
FN:228,_RNvMs0_Csh06HHTBymxI_19chess_vector_engineNtB5_17ChessVectorEngine20is_feature_available
FN:2143,_RNvMs0_Csh06HHTBymxI_19chess_vector_engineNtB5_17ChessVectorEngine20load_manifold_models
FN:1453,_RNvMs0_Csh06HHTBymxI_19chess_vector_engineNtB5_17ChessVectorEngine20load_starter_dataset
FN:1304,_RNvMs0_Csh06HHTBymxI_19chess_vector_engineNtB5_17ChessVectorEngine21new_with_instant_load
FN:1439,_RNvMs0_Csh06HHTBymxI_19chess_vector_engineNtB5_17ChessVectorEngine22check_gpu_acceleration
FN:1388,_RNvMs0_Csh06HHTBymxI_19chess_vector_engineNtB5_17ChessVectorEngine22check_licensed_feature
FN:1933,_RNvMs0_Csh06HHTBymxI_19chess_vector_engineNtB5_17ChessVectorEngine22convert_json_to_binary
FN:2626,_RNvMs0_Csh06HHTBymxI_19chess_vector_engineNtB5_17ChessVectorEngine22enable_parallel_search
FN:2595,_RNvMs0_Csh06HHTBymxI_19chess_vector_engineNtB5_17ChessVectorEngine22is_persistence_enabled
FN:1021,_RNvMs0_Csh06HHTBymxI_19chess_vector_engineNtB5_17ChessVectorEngine23auto_load_training_data
FN:2600,_RNvMs0_Csh06HHTBymxI_19chess_vector_engineNtB5_17ChessVectorEngine23database_position_count
FN:2670,_RNvMs0_Csh06HHTBymxI_19chess_vector_engineNtB5_17ChessVectorEngine23is_opening_book_enabled
FN:1244,_RNvMs0_Csh06HHTBymxI_19chess_vector_engineNtB5_17ChessVectorEngine23new_with_auto_discovery
FN:1573,_RNvMs0_Csh06HHTBymxI_19chess_vector_engineNtB5_17ChessVectorEngine24new_for_massive_datasets
FN:1367,_RNvMs0_Csh06HHTBymxI_19chess_vector_engineNtB5_17ChessVectorEngine24new_with_offline_license
FN:2638,_RNvMs0_Csh06HHTBymxI_19chess_vector_engineNtB5_17ChessVectorEngine26is_parallel_search_enabled
FN:925,_RNvMs0_Csh06HHTBymxI_19chess_vector_engineNtB5_17ChessVectorEngine26load_positions_from_tuples
FN:1716,_RNvMs0_Csh06HHTBymxI_19chess_vector_engineNtB5_17ChessVectorEngine27convert_a100_binary_to_json
FN:2587,_RNvMs0_Csh06HHTBymxI_19chess_vector_engineNtB5_17ChessVectorEngine9auto_save
FN:2011,_RNvMs0_Csh06HHTBymxI_19chess_vector_engineNtB5_17ChessVectorEngine9lsh_stats
FN:3091,_RNCNvNtCsh06HHTBymxI_19chess_vector_engine5testss_31test_position_with_move_storage0B5_
FN:2863,_RNvNtCsh06HHTBymxI_19chess_vector_engine5testss_15test_evaluation
FN:2851,_RNvNtCsh06HHTBymxI_19chess_vector_engine5testss_19test_add_and_search
FN:3233,_RNvNtCsh06HHTBymxI_19chess_vector_engine5testss_19test_training_stats
FN:2845,_RNvNtCsh06HHTBymxI_19chess_vector_engine5testss_20test_engine_creation
FN:2998,_RNvNtCsh06HHTBymxI_19chess_vector_engine5testss_20test_lsh_integration
FN:3160,_RNvNtCsh06HHTBymxI_19chess_vector_engine5testss_25test_incremental_training
FN:2876,_RNvNtCsh06HHTBymxI_19chess_vector_engine5testss_25test_move_recommendations
FN:3198,_RNvNtCsh06HHTBymxI_19chess_vector_engine5testss_26test_save_load_incremental
FN:3141,_RNvNtCsh06HHTBymxI_19chess_vector_engine5testss_28test_memory_usage_reasonable
FN:3021,_RNvNtCsh06HHTBymxI_19chess_vector_engine5testss_29test_manifold_lsh_integration
FN:2947,_RNvNtCsh06HHTBymxI_19chess_vector_engine5testss_29test_opening_book_integration
FN:3071,_RNvNtCsh06HHTBymxI_19chess_vector_engine5testss_31test_position_with_move_storage
FN:3269,_RNvNtCsh06HHTBymxI_19chess_vector_engine5testss_32test_tactical_search_integration
FN:3099,_RNvNtCsh06HHTBymxI_19chess_vector_engine5testss_33test_performance_regression_basic
FN:2895,_RNvNtCsh06HHTBymxI_19chess_vector_engine5testss_34test_empty_knowledge_base_fallback
FN:2972,_RNvNtCsh06HHTBymxI_19chess_vector_engine5testss_34test_manifold_learning_integration
FN:3291,_RNvNtCsh06HHTBymxI_19chess_vector_engine5testss_36test_hybrid_evaluation_configuration
FN:498,_RINvMs0_Csh06HHTBymxI_19chess_vector_engineNtB6_17ChessVectorEngine18save_training_dataRNtNtCseJswNlh1fGO_3std4path7PathBufEB6_
FN:681,_RINvMs0_Csh06HHTBymxI_19chess_vector_engineNtB6_17ChessVectorEngine25load_training_data_binaryNtNtCseJswNlh1fGO_3std4path7PathBufEB6_
FN:524,_RINvMs0_Csh06HHTBymxI_19chess_vector_engineNtB6_17ChessVectorEngine30load_training_data_incrementalRNtNtCseJswNlh1fGO_3std4path7PathBufEB6_
FN:2252,_RNCNvMs0_Csh06HHTBymxI_19chess_vector_engineNtB7_17ChessVectorEngine15recommend_moves0B7_
FN:2310,_RNCNvMs0_Csh06HHTBymxI_19chess_vector_engineNtB7_17ChessVectorEngine15recommend_movess0_0B7_
FN:2340,_RNCNvMs0_Csh06HHTBymxI_19chess_vector_engineNtB7_17ChessVectorEngine15recommend_movess1_0B7_
FN:2388,_RNCNvMs0_Csh06HHTBymxI_19chess_vector_engineNtB7_17ChessVectorEngine15recommend_movess2_0B7_
FN:2401,_RNCNvMs0_Csh06HHTBymxI_19chess_vector_engineNtB7_17ChessVectorEngine15recommend_movess3_0B7_
FN:2269,_RNCNvMs0_Csh06HHTBymxI_19chess_vector_engineNtB7_17ChessVectorEngine15recommend_movess_0B7_
FN:1425,_RNCNvMs0_Csh06HHTBymxI_19chess_vector_engineNtB7_17ChessVectorEngine16is_position_safe0B7_
FN:2195,_RNCNvMs0_Csh06HHTBymxI_19chess_vector_engineNtB7_17ChessVectorEngine18opening_book_stats0B7_
FN:2184,_RNCNvMs0_Csh06HHTBymxI_19chess_vector_engineNtB7_17ChessVectorEngine19is_opening_position0B7_
FN:2428,_RNCNvMs0_Csh06HHTBymxI_19chess_vector_engineNtB7_17ChessVectorEngine21recommend_legal_moves0B7_
FN:2050,_RNCNvMs0_Csh06HHTBymxI_19chess_vector_engineNtB7_17ChessVectorEngine23train_manifold_learning0B7_
FN:2138,_RNCNvMs0_Csh06HHTBymxI_19chess_vector_engineNtB7_17ChessVectorEngine26manifold_compression_ratio0B7_
FN:395,_RNCNvMs0_Csh06HHTBymxI_19chess_vector_engineNtB7_17ChessVectorEngine35find_similar_positions_with_indices0B7_
FN:56,_RNvCsh06HHTBymxI_19chess_vector_engine15move_centrality
FN:295,_RNvMs0_Csh06HHTBymxI_19chess_vector_engineNtB5_17ChessVectorEngine10enable_lsh
FN:308,_RNvMs0_Csh06HHTBymxI_19chess_vector_engineNtB5_17ChessVectorEngine12add_position
FN:974,_RNvMs0_Csh06HHTBymxI_19chess_vector_engineNtB5_17ChessVectorEngine12format_bytes
FN:2006,_RNvMs0_Csh06HHTBymxI_19chess_vector_engineNtB5_17ChessVectorEngine14is_lsh_enabled
FN:1008,_RNvMs0_Csh06HHTBymxI_19chess_vector_engineNtB5_17ChessVectorEngine14training_stats
FN:2221,_RNvMs0_Csh06HHTBymxI_19chess_vector_engineNtB5_17ChessVectorEngine15recommend_moves
FN:1423,_RNvMs0_Csh06HHTBymxI_19chess_vector_engineNtB5_17ChessVectorEngine16is_position_safe
FN:402,_RNvMs0_Csh06HHTBymxI_19chess_vector_engineNtB5_17ChessVectorEngine17evaluate_position
FN:2189,_RNvMs0_Csh06HHTBymxI_19chess_vector_engineNtB5_17ChessVectorEngine17get_opening_entry
FN:2194,_RNvMs0_Csh06HHTBymxI_19chess_vector_engineNtB5_17ChessVectorEngine18opening_book_stats
FN:2109,_RNvMs0_Csh06HHTBymxI_19chess_vector_engineNtB5_17ChessVectorEngine19enable_manifold_lsh
FN:2171,_RNvMs0_Csh06HHTBymxI_19chess_vector_engineNtB5_17ChessVectorEngine19enable_opening_book
FN:2181,_RNvMs0_Csh06HHTBymxI_19chess_vector_engineNtB5_17ChessVectorEngine19is_opening_position
FN:493,_RNvMs0_Csh06HHTBymxI_19chess_vector_engineNtB5_17ChessVectorEngine19knowledge_base_size
FN:2413,_RNvMs0_Csh06HHTBymxI_19chess_vector_engineNtB5_17ChessVectorEngine21recommend_legal_moves
FN:2199,_RNvMs0_Csh06HHTBymxI_19chess_vector_engineNtB5_17ChessVectorEngine22add_position_with_move
FN:2606,_RNvMs0_Csh06HHTBymxI_19chess_vector_engineNtB5_17ChessVectorEngine22enable_tactical_search
FN:345,_RNvMs0_Csh06HHTBymxI_19chess_vector_engineNtB5_17ChessVectorEngine22find_similar_positions
FN:2035,_RNvMs0_Csh06HHTBymxI_19chess_vector_engineNtB5_17ChessVectorEngine23train_manifold_learning
FN:2016,_RNvMs0_Csh06HHTBymxI_19chess_vector_engineNtB5_17ChessVectorEngine24enable_manifold_learning
FN:2080,_RNvMs0_Csh06HHTBymxI_19chess_vector_engineNtB5_17ChessVectorEngine24rebuild_manifold_indices
FN:2621,_RNvMs0_Csh06HHTBymxI_19chess_vector_engineNtB5_17ChessVectorEngine26is_tactical_search_enabled
FN:2135,_RNvMs0_Csh06HHTBymxI_19chess_vector_engineNtB5_17ChessVectorEngine26manifold_compression_ratio
FN:2616,_RNvMs0_Csh06HHTBymxI_19chess_vector_engineNtB5_17ChessVectorEngine27configure_hybrid_evaluation
FN:2611,_RNvMs0_Csh06HHTBymxI_19chess_vector_engineNtB5_17ChessVectorEngine30enable_tactical_search_default
FN:988,_RNvMs0_Csh06HHTBymxI_19chess_vector_engineNtB5_17ChessVectorEngine30train_from_dataset_incremental
FN:377,_RNvMs0_Csh06HHTBymxI_19chess_vector_engineNtB5_17ChessVectorEngine35find_similar_positions_with_indices
FN:186,_RNvMs0_Csh06HHTBymxI_19chess_vector_engineNtB5_17ChessVectorEngine3new
FN:111,_RNvXCsh06HHTBymxI_19chess_vector_engineNtB2_12HybridConfigNtNtCs9sjCchOt1K7_4core7default7Default7default
FN:159,_RNvXs_Csh06HHTBymxI_19chess_vector_engineNtB4_17ChessVectorEngineNtNtCs9sjCchOt1K7_4core5clone5Clone5clone
FNDA:0,_RINvMs0_Csh06HHTBymxI_19chess_vector_engineNtB6_17ChessVectorEngine18enable_persistencepEB6_
FNDA:0,_RINvMs0_Csh06HHTBymxI_19chess_vector_engineNtB6_17ChessVectorEngine18load_license_cachepEB6_
FNDA:0,_RINvMs0_Csh06HHTBymxI_19chess_vector_engineNtB6_17ChessVectorEngine18save_license_cachepEB6_
FNDA:0,_RINvMs0_Csh06HHTBymxI_19chess_vector_engineNtB6_17ChessVectorEngine20new_with_persistencepEB6_
FNDA:0,_RINvMs0_Csh06HHTBymxI_19chess_vector_engineNtB6_17ChessVectorEngine23load_training_data_mmappEB6_
FNDA:0,_RINvMs0_Csh06HHTBymxI_19chess_vector_engineNtB6_17ChessVectorEngine25save_training_data_binarypEB6_
FNDA:0,_RINvMs0_Csh06HHTBymxI_19chess_vector_engineNtB6_17ChessVectorEngine26load_lichess_puzzles_basicpEB6_
FNDA:0,_RINvMs0_Csh06HHTBymxI_19chess_vector_engineNtB6_17ChessVectorEngine26load_training_data_msgpackpEB6_
FNDA:0,_RINvMs0_Csh06HHTBymxI_19chess_vector_engineNtB6_17ChessVectorEngine26ultra_fast_load_any_formatpEB6_
FNDA:0,_RINvMs0_Csh06HHTBymxI_19chess_vector_engineNtB6_17ChessVectorEngine28load_lichess_puzzles_premiumpEB6_
FNDA:0,_RINvMs0_Csh06HHTBymxI_19chess_vector_engineNtB6_17ChessVectorEngine29load_training_data_compressedpEB6_
FNDA:0,_RINvMs0_Csh06HHTBymxI_19chess_vector_engineNtB6_17ChessVectorEngine33load_training_data_streaming_jsonpEB6_
FNDA:0,_RINvMs0_Csh06HHTBymxI_19chess_vector_engineNtB6_17ChessVectorEngine35load_training_data_streaming_binarypEB6_
FNDA:0,_RINvMs0_Csh06HHTBymxI_19chess_vector_engineNtB6_17ChessVectorEngine36load_training_data_streaming_json_v2pEB6_
FNDA:0,_RNCINvMs0_Csh06HHTBymxI_19chess_vector_engineNtB8_17ChessVectorEngine33load_training_data_streaming_jsonpE0B8_
FNDA:0,_RNCINvMs0_Csh06HHTBymxI_19chess_vector_engineNtB8_17ChessVectorEngine33load_training_data_streaming_jsonpEs_0B8_
FNDA:0,_RNCNCINvMs0_Csh06HHTBymxI_19chess_vector_engineNtBa_17ChessVectorEngine33load_training_data_streaming_jsonpE00Ba_
FNDA:0,_RNCNCINvMs0_Csh06HHTBymxI_19chess_vector_engineNtBa_17ChessVectorEngine33load_training_data_streaming_jsonpE0s_0Ba_
FNDA:0,_RNCNvMs0_Csh06HHTBymxI_19chess_vector_engineNtB7_17ChessVectorEngine15convert_to_mmap0B7_
FNDA:0,_RNCNvMs0_Csh06HHTBymxI_19chess_vector_engineNtB7_17ChessVectorEngine15convert_to_mmaps_0B7_
FNDA:0,_RNCNvMs0_Csh06HHTBymxI_19chess_vector_engineNtB7_17ChessVectorEngine16activate_license0B7_
FNDA:0,_RNCNvMs0_Csh06HHTBymxI_19chess_vector_engineNtB7_17ChessVectorEngine16save_to_database0B7_
FNDA:0,_RNCNvMs0_Csh06HHTBymxI_19chess_vector_engineNtB7_17ChessVectorEngine18convert_to_msgpack0B7_
FNDA:0,_RNCNvMs0_Csh06HHTBymxI_19chess_vector_engineNtB7_17ChessVectorEngine18convert_to_msgpacks_0B7_
FNDA:0,_RNCNvMs0_Csh06HHTBymxI_19chess_vector_engineNtB7_17ChessVectorEngine18load_from_database0B7_
FNDA:0,_RNCNvMs0_Csh06HHTBymxI_19chess_vector_engineNtB7_17ChessVectorEngine18load_from_databases_0B7_
FNDA:0,_RNCNvMs0_Csh06HHTBymxI_19chess_vector_engineNtB7_17ChessVectorEngine18new_with_fast_load0B7_
FNDA:0,_RNCNvMs0_Csh06HHTBymxI_19chess_vector_engineNtB7_17ChessVectorEngine22check_licensed_feature0B7_
FNDA:0,_RNCNvMs0_Csh06HHTBymxI_19chess_vector_engineNtB7_17ChessVectorEngine22convert_json_to_binary0B7_
FNDA:0,_RNCNvMs0_Csh06HHTBymxI_19chess_vector_engineNtB7_17ChessVectorEngine23auto_load_training_data0B7_
FNDA:0,_RNCNvMs0_Csh06HHTBymxI_19chess_vector_engineNtB7_17ChessVectorEngine23auto_load_training_datas_0B7_
FNDA:0,_RNCNvMs0_Csh06HHTBymxI_19chess_vector_engineNtB7_17ChessVectorEngine24new_for_massive_datasets0B7_
FNDA:0,_RNCNvMs0_Csh06HHTBymxI_19chess_vector_engineNtB7_17ChessVectorEngine26is_parallel_search_enabled0B7_
FNDA:0,_RNCNvMs0_Csh06HHTBymxI_19chess_vector_engineNtB7_17ChessVectorEngine9lsh_stats0B7_
FNDA:0,_RNvMs0_Csh06HHTBymxI_19chess_vector_engineNtB5_17ChessVectorEngine12new_adaptive
FNDA:0,_RNvMs0_Csh06HHTBymxI_19chess_vector_engineNtB5_17ChessVectorEngine12new_with_lsh
FNDA:0,_RNvMs0_Csh06HHTBymxI_19chess_vector_engineNtB5_17ChessVectorEngine12upgrade_tier
FNDA:0,_RNvMs0_Csh06HHTBymxI_19chess_vector_engineNtB5_17ChessVectorEngine13hybrid_config
FNDA:0,_RNvMs0_Csh06HHTBymxI_19chess_vector_engineNtB5_17ChessVectorEngine13new_with_tier
FNDA:0,_RNvMs0_Csh06HHTBymxI_19chess_vector_engineNtB5_17ChessVectorEngine15convert_to_mmap
FNDA:0,_RNvMs0_Csh06HHTBymxI_19chess_vector_engineNtB5_17ChessVectorEngine15convert_to_zstd
FNDA:0,_RNvMs0_Csh06HHTBymxI_19chess_vector_engineNtB5_17ChessVectorEngine15encode_position
FNDA:0,_RNvMs0_Csh06HHTBymxI_19chess_vector_engineNtB5_17ChessVectorEngine15require_feature
FNDA:0,_RNvMs0_Csh06HHTBymxI_19chess_vector_engineNtB5_17ChessVectorEngine16activate_license
FNDA:0,_RNvMs0_Csh06HHTBymxI_19chess_vector_engineNtB5_17ChessVectorEngine16get_feature_tier
FNDA:0,_RNvMs0_Csh06HHTBymxI_19chess_vector_engineNtB5_17ChessVectorEngine16new_with_license
FNDA:0,_RNvMs0_Csh06HHTBymxI_19chess_vector_engineNtB5_17ChessVectorEngine16save_to_database
FNDA:0,_RNvMs0_Csh06HHTBymxI_19chess_vector_engineNtB5_17ChessVectorEngine16set_opening_book
FNDA:0,_RNvMs0_Csh06HHTBymxI_19chess_vector_engineNtB5_17ChessVectorEngine18adaptive_self_play
FNDA:0,_RNvMs0_Csh06HHTBymxI_19chess_vector_engineNtB5_17ChessVectorEngine18convert_to_msgpack
FNDA:0,_RNvMs0_Csh06HHTBymxI_19chess_vector_engineNtB5_17ChessVectorEngine18load_from_database
FNDA:0,_RNvMs0_Csh06HHTBymxI_19chess_vector_engineNtB5_17ChessVectorEngine18new_with_auto_load
FNDA:0,_RNvMs0_Csh06HHTBymxI_19chess_vector_engineNtB5_17ChessVectorEngine18new_with_fast_load
FNDA:0,_RNvMs0_Csh06HHTBymxI_19chess_vector_engineNtB5_17ChessVectorEngine18self_play_training
FNDA:0,_RNvMs0_Csh06HHTBymxI_19chess_vector_engineNtB5_17ChessVectorEngine19is_manifold_enabled
FNDA:0,_RNvMs0_Csh06HHTBymxI_19chess_vector_engineNtB5_17ChessVectorEngine19load_file_by_format
FNDA:0,_RNvMs0_Csh06HHTBymxI_19chess_vector_engineNtB5_17ChessVectorEngine20calculate_similarity
FNDA:0,_RNvMs0_Csh06HHTBymxI_19chess_vector_engineNtB5_17ChessVectorEngine20continuous_self_play
FNDA:0,_RNvMs0_Csh06HHTBymxI_19chess_vector_engineNtB5_17ChessVectorEngine20is_feature_available
FNDA:0,_RNvMs0_Csh06HHTBymxI_19chess_vector_engineNtB5_17ChessVectorEngine20load_manifold_models
FNDA:0,_RNvMs0_Csh06HHTBymxI_19chess_vector_engineNtB5_17ChessVectorEngine20load_starter_dataset
FNDA:0,_RNvMs0_Csh06HHTBymxI_19chess_vector_engineNtB5_17ChessVectorEngine21new_with_instant_load
FNDA:0,_RNvMs0_Csh06HHTBymxI_19chess_vector_engineNtB5_17ChessVectorEngine22check_gpu_acceleration
FNDA:0,_RNvMs0_Csh06HHTBymxI_19chess_vector_engineNtB5_17ChessVectorEngine22check_licensed_feature
FNDA:0,_RNvMs0_Csh06HHTBymxI_19chess_vector_engineNtB5_17ChessVectorEngine22convert_json_to_binary
FNDA:0,_RNvMs0_Csh06HHTBymxI_19chess_vector_engineNtB5_17ChessVectorEngine22enable_parallel_search
FNDA:0,_RNvMs0_Csh06HHTBymxI_19chess_vector_engineNtB5_17ChessVectorEngine22is_persistence_enabled
FNDA:0,_RNvMs0_Csh06HHTBymxI_19chess_vector_engineNtB5_17ChessVectorEngine23auto_load_training_data
FNDA:0,_RNvMs0_Csh06HHTBymxI_19chess_vector_engineNtB5_17ChessVectorEngine23database_position_count
FNDA:0,_RNvMs0_Csh06HHTBymxI_19chess_vector_engineNtB5_17ChessVectorEngine23is_opening_book_enabled
FNDA:0,_RNvMs0_Csh06HHTBymxI_19chess_vector_engineNtB5_17ChessVectorEngine23new_with_auto_discovery
FNDA:0,_RNvMs0_Csh06HHTBymxI_19chess_vector_engineNtB5_17ChessVectorEngine24new_for_massive_datasets
FNDA:0,_RNvMs0_Csh06HHTBymxI_19chess_vector_engineNtB5_17ChessVectorEngine24new_with_offline_license
FNDA:0,_RNvMs0_Csh06HHTBymxI_19chess_vector_engineNtB5_17ChessVectorEngine26is_parallel_search_enabled
FNDA:0,_RNvMs0_Csh06HHTBymxI_19chess_vector_engineNtB5_17ChessVectorEngine26load_positions_from_tuples
FNDA:0,_RNvMs0_Csh06HHTBymxI_19chess_vector_engineNtB5_17ChessVectorEngine27convert_a100_binary_to_json
FNDA:0,_RNvMs0_Csh06HHTBymxI_19chess_vector_engineNtB5_17ChessVectorEngine9auto_save
FNDA:0,_RNvMs0_Csh06HHTBymxI_19chess_vector_engineNtB5_17ChessVectorEngine9lsh_stats
FNDA:2,_RNCNvNtCsh06HHTBymxI_19chess_vector_engine5testss_31test_position_with_move_storage0B5_
FNDA:1,_RNvNtCsh06HHTBymxI_19chess_vector_engine5testss_15test_evaluation
FNDA:1,_RNvNtCsh06HHTBymxI_19chess_vector_engine5testss_19test_add_and_search
FNDA:1,_RNvNtCsh06HHTBymxI_19chess_vector_engine5testss_19test_training_stats
FNDA:1,_RNvNtCsh06HHTBymxI_19chess_vector_engine5testss_20test_engine_creation
FNDA:1,_RNvNtCsh06HHTBymxI_19chess_vector_engine5testss_20test_lsh_integration
FNDA:1,_RNvNtCsh06HHTBymxI_19chess_vector_engine5testss_25test_incremental_training
FNDA:1,_RNvNtCsh06HHTBymxI_19chess_vector_engine5testss_25test_move_recommendations
FNDA:1,_RNvNtCsh06HHTBymxI_19chess_vector_engine5testss_26test_save_load_incremental
FNDA:1,_RNvNtCsh06HHTBymxI_19chess_vector_engine5testss_28test_memory_usage_reasonable
FNDA:1,_RNvNtCsh06HHTBymxI_19chess_vector_engine5testss_29test_manifold_lsh_integration
FNDA:1,_RNvNtCsh06HHTBymxI_19chess_vector_engine5testss_29test_opening_book_integration
FNDA:1,_RNvNtCsh06HHTBymxI_19chess_vector_engine5testss_31test_position_with_move_storage
FNDA:1,_RNvNtCsh06HHTBymxI_19chess_vector_engine5testss_32test_tactical_search_integration
FNDA:1,_RNvNtCsh06HHTBymxI_19chess_vector_engine5testss_33test_performance_regression_basic
FNDA:1,_RNvNtCsh06HHTBymxI_19chess_vector_engine5testss_34test_empty_knowledge_base_fallback
FNDA:1,_RNvNtCsh06HHTBymxI_19chess_vector_engine5testss_34test_manifold_learning_integration
FNDA:1,_RNvNtCsh06HHTBymxI_19chess_vector_engine5testss_36test_hybrid_evaluation_configuration
FNDA:1,_RINvMs0_Csh06HHTBymxI_19chess_vector_engineNtB6_17ChessVectorEngine18save_training_dataRNtNtCseJswNlh1fGO_3std4path7PathBufEB6_
FNDA:0,_RINvMs0_Csh06HHTBymxI_19chess_vector_engineNtB6_17ChessVectorEngine25load_training_data_binaryNtNtCseJswNlh1fGO_3std4path7PathBufEB6_
FNDA:1,_RINvMs0_Csh06HHTBymxI_19chess_vector_engineNtB6_17ChessVectorEngine30load_training_data_incrementalRNtNtCseJswNlh1fGO_3std4path7PathBufEB6_
FNDA:3,_RNCNvMs0_Csh06HHTBymxI_19chess_vector_engineNtB7_17ChessVectorEngine15recommend_moves0B7_
FNDA:0,_RNCNvMs0_Csh06HHTBymxI_19chess_vector_engineNtB7_17ChessVectorEngine15recommend_movess0_0B7_
FNDA:264,_RNCNvMs0_Csh06HHTBymxI_19chess_vector_engineNtB7_17ChessVectorEngine15recommend_movess1_0B7_
FNDA:15,_RNCNvMs0_Csh06HHTBymxI_19chess_vector_engineNtB7_17ChessVectorEngine15recommend_movess2_0B7_
FNDA:8,_RNCNvMs0_Csh06HHTBymxI_19chess_vector_engineNtB7_17ChessVectorEngine15recommend_movess3_0B7_
FNDA:7,_RNCNvMs0_Csh06HHTBymxI_19chess_vector_engineNtB7_17ChessVectorEngine15recommend_movess_0B7_
FNDA:1302,_RNCNvMs0_Csh06HHTBymxI_19chess_vector_engineNtB7_17ChessVectorEngine16is_position_safe0B7_
FNDA:1,_RNCNvMs0_Csh06HHTBymxI_19chess_vector_engineNtB7_17ChessVectorEngine18opening_book_stats0B7_
FNDA:1,_RNCNvMs0_Csh06HHTBymxI_19chess_vector_engineNtB7_17ChessVectorEngine19is_opening_position0B7_
FNDA:1,_RNCNvMs0_Csh06HHTBymxI_19chess_vector_engineNtB7_17ChessVectorEngine21recommend_legal_moves0B7_
FNDA:30720,_RNCNvMs0_Csh06HHTBymxI_19chess_vector_engineNtB7_17ChessVectorEngine23train_manifold_learning0B7_
FNDA:1,_RNCNvMs0_Csh06HHTBymxI_19chess_vector_engineNtB7_17ChessVectorEngine26manifold_compression_ratio0B7_
FNDA:20,_RNCNvMs0_Csh06HHTBymxI_19chess_vector_engineNtB7_17ChessVectorEngine35find_similar_positions_with_indices0B7_
FNDA:520,_RNvCsh06HHTBymxI_19chess_vector_engine15move_centrality
FNDA:5,_RNvMs0_Csh06HHTBymxI_19chess_vector_engineNtB5_17ChessVectorEngine10enable_lsh
FNDA:1302,_RNvMs0_Csh06HHTBymxI_19chess_vector_engineNtB5_17ChessVectorEngine12add_position
FNDA:0,_RNvMs0_Csh06HHTBymxI_19chess_vector_engineNtB5_17ChessVectorEngine12format_bytes
FNDA:4,_RNvMs0_Csh06HHTBymxI_19chess_vector_engineNtB5_17ChessVectorEngine14is_lsh_enabled
FNDA:5,_RNvMs0_Csh06HHTBymxI_19chess_vector_engineNtB5_17ChessVectorEngine14training_stats
FNDA:8,_RNvMs0_Csh06HHTBymxI_19chess_vector_engineNtB5_17ChessVectorEngine15recommend_moves
FNDA:1302,_RNvMs0_Csh06HHTBymxI_19chess_vector_engineNtB5_17ChessVectorEngine16is_position_safe
FNDA:19,_RNvMs0_Csh06HHTBymxI_19chess_vector_engineNtB5_17ChessVectorEngine17evaluate_position
FNDA:28,_RNvMs0_Csh06HHTBymxI_19chess_vector_engineNtB5_17ChessVectorEngine17get_opening_entry
FNDA:1,_RNvMs0_Csh06HHTBymxI_19chess_vector_engineNtB5_17ChessVectorEngine18opening_book_stats
FNDA:1,_RNvMs0_Csh06HHTBymxI_19chess_vector_engineNtB5_17ChessVectorEngine19enable_manifold_lsh
FNDA:17,_RNvMs0_Csh06HHTBymxI_19chess_vector_engineNtB5_17ChessVectorEngine19enable_opening_book
FNDA:1,_RNvMs0_Csh06HHTBymxI_19chess_vector_engineNtB5_17ChessVectorEngine19is_opening_position
FNDA:32,_RNvMs0_Csh06HHTBymxI_19chess_vector_engineNtB5_17ChessVectorEngine19knowledge_base_size
FNDA:1,_RNvMs0_Csh06HHTBymxI_19chess_vector_engineNtB5_17ChessVectorEngine21recommend_legal_moves
FNDA:6,_RNvMs0_Csh06HHTBymxI_19chess_vector_engineNtB5_17ChessVectorEngine22add_position_with_move
FNDA:4,_RNvMs0_Csh06HHTBymxI_19chess_vector_engineNtB5_17ChessVectorEngine22enable_tactical_search
FNDA:29,_RNvMs0_Csh06HHTBymxI_19chess_vector_engineNtB5_17ChessVectorEngine22find_similar_positions
FNDA:2,_RNvMs0_Csh06HHTBymxI_19chess_vector_engineNtB5_17ChessVectorEngine23train_manifold_learning
FNDA:2,_RNvMs0_Csh06HHTBymxI_19chess_vector_engineNtB5_17ChessVectorEngine24enable_manifold_learning
FNDA:3,_RNvMs0_Csh06HHTBymxI_19chess_vector_engineNtB5_17ChessVectorEngine24rebuild_manifold_indices
FNDA:2,_RNvMs0_Csh06HHTBymxI_19chess_vector_engineNtB5_17ChessVectorEngine26is_tactical_search_enabled
FNDA:1,_RNvMs0_Csh06HHTBymxI_19chess_vector_engineNtB5_17ChessVectorEngine26manifold_compression_ratio
FNDA:25,_RNvMs0_Csh06HHTBymxI_19chess_vector_engineNtB5_17ChessVectorEngine27configure_hybrid_evaluation
FNDA:17,_RNvMs0_Csh06HHTBymxI_19chess_vector_engineNtB5_17ChessVectorEngine30enable_tactical_search_default
FNDA:1,_RNvMs0_Csh06HHTBymxI_19chess_vector_engineNtB5_17ChessVectorEngine30train_from_dataset_incremental
FNDA:7,_RNvMs0_Csh06HHTBymxI_19chess_vector_engineNtB5_17ChessVectorEngine35find_similar_positions_with_indices
FNDA:37,_RNvMs0_Csh06HHTBymxI_19chess_vector_engineNtB5_17ChessVectorEngine3new
FNDA:61,_RNvXCsh06HHTBymxI_19chess_vector_engineNtB2_12HybridConfigNtNtCs9sjCchOt1K7_4core7default7Default7default
FNDA:1,_RNvXs_Csh06HHTBymxI_19chess_vector_engineNtB4_17ChessVectorEngineNtNtCs9sjCchOt1K7_4core5clone5Clone5clone
FNF:143
FNH:62
DA:56,520
DA:57,520
DA:58,520
DA:59,520
DA:60,520
DA:61,520
DA:62,520
DA:63,520
DA:64,520
DA:65,520
DA:66,520
DA:67,520
DA:68,520
DA:69,520
DA:70,520
DA:71,520
DA:72,520
DA:111,61
DA:112,61
DA:113,61
DA:114,61
DA:115,61
DA:116,61
DA:117,61
DA:118,61
DA:119,61
DA:159,1
DA:160,1
DA:161,1
DA:162,1
DA:163,1
DA:164,1
DA:165,1
DA:166,1
DA:167,1
DA:168,1
DA:169,1
DA:170,1
DA:171,1
DA:172,1
DA:173,1
DA:174,1
DA:175,1
DA:176,1
DA:177,1
DA:178,1
DA:179,1
DA:180,1
DA:181,1
DA:186,37
DA:187,37
DA:188,37
DA:189,37
DA:190,37
DA:191,37
DA:192,37
DA:193,37
DA:194,37
DA:195,37
DA:196,37
DA:197,37
DA:198,37
DA:199,37
DA:200,37
DA:201,37
DA:202,37
DA:203,37
DA:204,37
DA:205,37
DA:206,37
DA:207,37
DA:208,37
DA:211,0
DA:212,0
DA:213,0
DA:214,0
DA:215,0
DA:218,0
DA:219,0
DA:220,0
DA:223,0
DA:224,0
DA:225,0
DA:228,0
DA:229,0
DA:230,0
DA:233,0
DA:234,0
DA:235,0
DA:239,0
DA:240,0
DA:241,0
DA:242,0
DA:244,0
DA:246,0
DA:249,0
DA:250,0
DA:252,0
DA:254,0
DA:257,0
DA:258,0
DA:260,0
DA:262,0
DA:265,0
DA:267,0
DA:270,0
DA:271,0
DA:272,0
DA:273,0
DA:274,0
DA:275,0
DA:276,0
DA:277,0
DA:278,0
DA:279,0
DA:280,0
DA:281,0
DA:282,0
DA:283,0
DA:284,0
DA:285,0
DA:286,0
DA:287,0
DA:288,0
DA:289,0
DA:290,0
DA:291,0
DA:292,0
DA:295,5
DA:296,5
DA:297,5
DA:300,5
DA:301,52
DA:302,52
DA:303,52
DA:304,0
DA:305,5
DA:308,1302
DA:309,1302
DA:310,1302
DA:311,0
DA:312,1302
DA:313,1302
DA:314,1302
DA:315,1302
DA:316,1302
DA:317,1302
DA:318,1302
DA:319,1302
DA:320,1302
DA:321,1302
DA:324,1302
DA:325,0
DA:326,1302
DA:329,1302
DA:330,0
DA:331,0
DA:333,0
DA:334,0
DA:335,0
DA:337,0
DA:338,0
DA:339,0
DA:340,0
DA:341,1302
DA:342,1302
DA:345,29
DA:346,29
DA:347,29
DA:348,29
DA:349,29
DA:350,2
DA:351,2
DA:354,2
DA:355,1
DA:356,1
DA:359,1
DA:360,1
DA:361,0
DA:362,0
DA:363,27
DA:366,27
DA:367,2
DA:368,2
DA:369,0
DA:370,25
DA:373,25
DA:374,29
DA:377,7
DA:378,7
DA:379,7
DA:380,7
DA:381,7
DA:382,7
DA:383,7
DA:384,7
DA:385,7
DA:386,7
DA:388,25
DA:389,25
DA:390,25
DA:391,25
DA:392,25
DA:395,20
DA:396,7
DA:397,7
DA:398,7
DA:399,7
DA:402,19
DA:411,19
DA:412,4
DA:413,15
DA:414,15
DA:415,15
DA:416,15
DA:417,15
DA:418,15
DA:420,8
DA:421,8
DA:422,8
DA:423,0
DA:424,0
DA:425,7
DA:426,7
DA:427,7
DA:428,7
DA:429,7
DA:430,7
DA:432,18
DA:433,11
DA:434,11
DA:435,11
DA:436,11
DA:437,11
DA:439,7
DA:440,7
DA:441,7
DA:442,7
DA:443,7
DA:444,7
DA:445,7
DA:446,7
DA:449,7
DA:450,6
DA:451,5
DA:453,7
DA:455,2
DA:456,2
DA:457,2
DA:459,0
DA:463,2
DA:464,2
DA:465,2
DA:466,2
DA:467,2
DA:468,2
DA:469,2
DA:472,0
DA:476,5
DA:478,19
DA:481,0
DA:482,0
DA:483,0
DA:486,0
DA:487,0
DA:488,0
DA:489,0
DA:490,0
DA:493,32
DA:494,32
DA:495,32
DA:498,1
DA:499,1
DA:500,1
DA:501,1
DA:504,1
DA:507,2
DA:508,2
DA:509,2
DA:510,2
DA:511,2
DA:512,2
DA:513,2
DA:514,2
DA:515,2
DA:518,1
DA:519,1
DA:520,1
DA:521,1
DA:524,1
DA:525,1
DA:526,1
DA:527,1
DA:532,1
DA:533,1
DA:534,1
DA:535,1
DA:536,1
DA:537,1
DA:538,0
DA:539,0
DA:540,1
DA:541,1
DA:542,1
DA:543,1
DA:545,1
DA:546,1
DA:547,0
DA:548,0
DA:549,1
DA:550,1
DA:551,1
DA:552,1
DA:553,1
DA:554,1
DA:555,1
DA:556,1
DA:557,1
DA:558,1
DA:559,1
DA:560,1
DA:561,1
DA:562,1
DA:565,2
DA:566,2
DA:567,2
DA:568,2
DA:569,2
DA:570,2
DA:572,2
DA:573,2
DA:574,2
DA:575,2
DA:577,1
DA:578,1
DA:579,1
DA:580,0
DA:581,0
DA:582,1
DA:583,1
DA:584,1
DA:585,1
DA:586,1
DA:587,1
DA:588,1
DA:589,1
DA:593,2
DA:594,1
DA:595,1
DA:596,1
DA:598,2
DA:599,2
DA:600,2
DA:601,2
DA:602,2
DA:603,2
DA:605,1
DA:606,1
DA:607,1
DA:608,1
DA:609,1
DA:610,1
DA:611,1
DA:612,1
DA:613,1
DA:616,0
DA:617,0
DA:618,0
DA:619,0
DA:622,0
DA:633,0
DA:634,0
DA:635,0
DA:636,0
DA:637,0
DA:638,0
DA:639,0
DA:640,0
DA:642,0
DA:643,0
DA:644,0
DA:645,0
DA:646,0
DA:647,0
DA:648,0
DA:649,0
DA:650,0
DA:651,0
DA:652,0
DA:653,0
DA:656,0
DA:657,0
DA:658,0
DA:659,0
DA:660,0
DA:661,0
DA:664,0
DA:667,0
DA:668,0
DA:669,0
DA:670,0
DA:672,0
DA:673,0
DA:674,0
DA:675,0
DA:676,0
DA:677,0
DA:678,0
DA:681,0
DA:682,0
DA:683,0
DA:684,0
DA:688,0
DA:698,0
DA:701,0
DA:702,0
DA:703,0
DA:704,0
DA:705,0
DA:707,0
DA:708,0
DA:709,0
DA:711,0
DA:712,0
DA:714,0
DA:715,0
DA:716,0
DA:717,0
DA:718,0
DA:719,0
DA:720,0
DA:721,0
DA:722,0
DA:723,0
DA:724,0
DA:725,0
DA:726,0
DA:727,0
DA:728,0
DA:729,0
DA:730,0
DA:731,0
DA:732,0
DA:733,0
DA:736,0
DA:737,0
DA:738,0
DA:740,0
DA:741,0
DA:742,0
DA:743,0
DA:744,0
DA:745,0
DA:747,0
DA:748,0
DA:749,0
DA:750,0
DA:752,0
DA:753,0
DA:754,0
DA:755,0
DA:756,0
DA:757,0
DA:758,0
DA:759,0
DA:760,0
DA:764,0
DA:765,0
DA:766,0
DA:767,0
DA:768,0
DA:769,0
DA:774,0
DA:775,0
DA:776,0
DA:777,0
DA:778,0
DA:780,0
DA:781,0
DA:784,0
DA:785,0
DA:786,0
DA:787,0
DA:790,0
DA:791,0
DA:792,0
DA:793,0
DA:796,0
DA:797,0
DA:798,0
DA:799,0
DA:800,0
DA:804,0
DA:805,0
DA:806,0
DA:807,0
DA:811,0
DA:812,0
DA:813,0
DA:814,0
DA:815,0
DA:817,0
DA:818,0
DA:819,0
DA:821,0
DA:822,0
DA:823,0
DA:827,0
DA:828,0
DA:829,0
DA:830,0
DA:837,0
DA:838,0
DA:839,0
DA:840,0
DA:841,0
DA:843,0
DA:844,0
DA:845,0
DA:846,0
DA:847,0
DA:848,0
DA:850,0
DA:851,0
DA:852,0
DA:853,0
DA:854,0
DA:855,0
DA:856,0
DA:857,0
DA:858,0
DA:859,0
DA:860,0
DA:861,0
DA:862,0
DA:863,0
DA:865,0
DA:866,0
DA:867,0
DA:868,0
DA:869,0
DA:870,0
DA:871,0
DA:875,0
DA:876,0
DA:877,0
DA:878,0
DA:879,0
DA:880,0
DA:881,0
DA:882,0
DA:885,0
DA:886,0
DA:890,0
DA:891,0
DA:892,0
DA:893,0
DA:897,0
DA:898,0
DA:899,0
DA:900,0
DA:901,0
DA:903,0
DA:904,0
DA:905,0
DA:908,0
DA:909,0
DA:910,0
DA:911,0
DA:914,0
DA:915,0
DA:916,0
DA:917,0
DA:919,0
DA:920,0
DA:921,0
DA:925,0
DA:926,0
DA:927,0
DA:928,0
DA:932,0
DA:933,0
DA:934,0
DA:935,0
DA:936,0
DA:937,0
DA:938,0
DA:939,0
DA:940,0
DA:942,0
DA:943,0
DA:944,0
DA:945,0
DA:946,0
DA:947,0
DA:948,0
DA:949,0
DA:952,0
DA:953,0
DA:954,0
DA:955,0
DA:956,0
DA:957,0
DA:958,0
DA:959,0
DA:962,0
DA:963,0
DA:964,0
DA:965,0
DA:966,0
DA:967,0
DA:968,0
DA:969,0
DA:970,0
DA:971,0
DA:974,0
DA:976,0
DA:977,0
DA:979,0
DA:980,0
DA:981,0
DA:982,0
DA:984,0
DA:985,0
DA:988,1
DA:989,1
DA:990,1
DA:992,3
DA:994,2
DA:995,1
DA:996,1
DA:997,1
DA:1000,1
DA:1001,1
DA:1002,1
DA:1003,1
DA:1004,1
DA:1005,1
DA:1008,5
DA:1009,5
DA:1010,5
DA:1011,5
DA:1012,5
DA:1013,5
DA:1014,5
DA:1015,5
DA:1016,5
DA:1017,5
DA:1018,5
DA:1021,0
DA:1024,0
DA:1025,0
DA:1026,0
DA:1027,0
DA:1028,0
DA:1029,0
DA:1030,0
DA:1031,0
DA:1032,0
DA:1033,0
DA:1034,0
DA:1035,0
DA:1036,0
DA:1037,0
DA:1038,0
DA:1039,0
DA:1040,0
DA:1041,0
DA:1042,0
DA:1043,0
DA:1045,0
DA:1046,0
DA:1047,0
DA:1048,0
DA:1051,0
DA:1052,0
DA:1053,0
DA:1054,0
DA:1055,0
DA:1056,0
DA:1057,0
DA:1058,0
DA:1059,0
DA:1060,0
DA:1061,0
DA:1062,0
DA:1063,0
DA:1064,0
DA:1065,0
DA:1066,0
DA:1067,0
DA:1068,0
DA:1070,0
DA:1071,0
DA:1072,0
DA:1074,0
DA:1075,0
DA:1076,0
DA:1077,0
DA:1078,0
DA:1079,0
DA:1080,0
DA:1081,0
DA:1082,0
DA:1083,0
DA:1084,0
DA:1085,0
DA:1086,0
DA:1087,0
DA:1088,0
DA:1090,0
DA:1093,0
DA:1094,0
DA:1095,0
DA:1098,0
DA:1099,0
DA:1100,0
DA:1101,0
DA:1102,0
DA:1105,0
DA:1106,0
DA:1107,0
DA:1108,0
DA:1109,0
DA:1111,0
DA:1112,0
DA:1113,0
DA:1115,0
DA:1116,0
DA:1117,0
DA:1119,0
DA:1120,0
DA:1121,0
DA:1124,0
DA:1125,0
DA:1126,0
DA:1127,0
DA:1128,0
DA:1129,0
DA:1130,0
DA:1131,0
DA:1132,0
DA:1133,0
DA:1134,0
DA:1136,0
DA:1137,0
DA:1138,0
DA:1140,0
DA:1141,0
DA:1142,0
DA:1145,0
DA:1146,0
DA:1147,0
DA:1150,0
DA:1152,0
DA:1153,0
DA:1154,0
DA:1155,0
DA:1156,0
DA:1157,0
DA:1158,0
DA:1159,0
DA:1160,0
DA:1161,0
DA:1162,0
DA:1164,0
DA:1165,0
DA:1169,0
DA:1172,0
DA:1173,0
DA:1176,0
DA:1177,0
DA:1178,0
DA:1181,0
DA:1182,0
DA:1183,0
DA:1184,0
DA:1185,0
DA:1186,0
DA:1187,0
DA:1188,0
DA:1189,0
DA:1190,0
DA:1191,0
DA:1192,0
DA:1193,0
DA:1194,0
DA:1195,0
DA:1196,0
DA:1197,0
DA:1198,0
DA:1199,0
DA:1200,0
DA:1201,0
DA:1202,0
DA:1203,0
DA:1204,0
DA:1205,0
DA:1206,0
DA:1207,0
DA:1208,0
DA:1211,0
DA:1212,0
DA:1213,0
DA:1214,0
DA:1215,0
DA:1216,0
DA:1217,0
DA:1220,0
DA:1221,0
DA:1223,0
DA:1224,0
DA:1228,0
DA:1229,0
DA:1230,0
DA:1231,0
DA:1233,0
DA:1234,0
DA:1235,0
DA:1236,0
DA:1237,0
DA:1238,0
DA:1239,0
DA:1240,0
DA:1244,0
DA:1245,0
DA:1246,0
DA:1247,0
DA:1250,0
DA:1251,0
DA:1252,0
DA:1255,0
DA:1257,0
DA:1258,0
DA:1259,0
DA:1260,0
DA:1261,0
DA:1262,0
DA:1263,0
DA:1264,0
DA:1265,0
DA:1266,0
DA:1267,0
DA:1268,0
DA:1269,0
DA:1270,0
DA:1271,0
DA:1272,0
DA:1273,0
DA:1274,0
DA:1278,0
DA:1279,0
DA:1280,0
DA:1281,0
DA:1282,0
DA:1283,0
DA:1284,0
DA:1286,0
DA:1287,0
DA:1290,0
DA:1291,0
DA:1292,0
DA:1294,0
DA:1295,0
DA:1296,0
DA:1297,0
DA:1298,0
DA:1299,0
DA:1300,0
DA:1304,0
DA:1305,0
DA:1306,0
DA:1307,0
DA:1310,0
DA:1311,0
DA:1312,0
DA:1315,0
DA:1317,0
DA:1319,0
DA:1320,0
DA:1321,0
DA:1322,0
DA:1323,0
DA:1324,0
DA:1325,0
DA:1326,0
DA:1327,0
DA:1328,0
DA:1329,0
DA:1330,0
DA:1333,0
DA:1334,0
DA:1335,0
DA:1336,0
DA:1337,0
DA:1338,0
DA:1339,0
DA:1340,0
DA:1341,0
DA:1342,0
DA:1343,0
DA:1344,0
DA:1345,0
DA:1348,0
DA:1349,0
DA:1350,0
DA:1352,0
DA:1353,0
DA:1354,0
DA:1355,0
DA:1356,0
DA:1357,0
DA:1360,0
DA:1361,0
DA:1362,0
DA:1363,0
DA:1364,0
DA:1367,0
DA:1368,0
DA:1369,0
DA:1370,0
DA:1371,0
DA:1374,0
DA:1375,0
DA:1376,0
DA:1378,0
DA:1379,0
DA:1381,0
DA:1382,0
DA:1383,0
DA:1385,0
DA:1388,0
DA:1389,0
DA:1390,0
DA:1393,0
DA:1395,0
DA:1398,0
DA:1399,0
DA:1400,0
DA:1401,0
DA:1402,0
DA:1403,0
DA:1404,0
DA:1405,0
DA:1406,0
DA:1409,0
DA:1410,0
DA:1411,0
DA:1412,0
DA:1413,0
DA:1414,0
DA:1415,0
DA:1416,0
DA:1417,0
DA:1423,1302
DA:1424,1302
DA:1425,1302
DA:1427,1302
DA:1428,1302
DA:1429,1302
DA:1430,1302
DA:1433,0
DA:1436,1302
DA:1439,0
DA:1440,0
DA:1443,0
DA:1445,0
DA:1446,0
DA:1448,0
DA:1450,0
DA:1453,0
DA:1457,0
DA:1459,0
DA:1460,0
DA:1461,0
DA:1462,0
DA:1463,0
DA:1464,0
DA:1465,0
DA:1468,0
DA:1471,0
DA:1472,0
DA:1475,0
DA:1476,0
DA:1479,0
DA:1480,0
DA:1481,0
DA:1482,0
DA:1483,0
DA:1485,0
DA:1486,0
DA:1487,0
DA:1488,0
DA:1489,0
DA:1490,0
DA:1491,0
DA:1492,0
DA:1493,0
DA:1494,0
DA:1495,0
DA:1496,0
DA:1497,0
DA:1498,0
DA:1499,0
DA:1500,0
DA:1501,0
DA:1502,0
DA:1503,0
DA:1505,0
DA:1508,0
DA:1509,0
DA:1510,0
DA:1511,0
DA:1512,0
DA:1513,0
DA:1515,0
DA:1516,0
DA:1518,0
DA:1519,0
DA:1520,0
DA:1521,0
DA:1522,0
DA:1523,0
DA:1524,0
DA:1525,0
DA:1526,0
DA:1530,0
DA:1531,0
DA:1532,0
DA:1533,0
DA:1534,0
DA:1535,0
DA:1537,0
DA:1538,0
DA:1539,0
DA:1540,0
DA:1541,0
DA:1542,0
DA:1543,0
DA:1547,0
DA:1548,0
DA:1549,0
DA:1550,0
DA:1551,0
DA:1554,0
DA:1556,0
DA:1558,0
DA:1561,0
DA:1563,0
DA:1564,0
DA:1565,0
DA:1566,0
DA:1567,0
DA:1568,0
DA:1569,0
DA:1573,0
DA:1574,0
DA:1575,0
DA:1576,0
DA:1577,0
DA:1578,0
DA:1581,0
DA:1583,0
DA:1584,0
DA:1585,0
DA:1586,0
DA:1587,0
DA:1588,0
DA:1589,0
DA:1590,0
DA:1591,0
DA:1592,0
DA:1593,0
DA:1594,0
DA:1595,0
DA:1596,0
DA:1597,0
DA:1598,0
DA:1599,0
DA:1600,0
DA:1601,0
DA:1603,0
DA:1604,0
DA:1605,0
DA:1606,0
DA:1607,0
DA:1608,0
DA:1612,0
DA:1618,0
DA:1619,0
DA:1620,0
DA:1622,0
DA:1623,0
DA:1624,0
DA:1625,0
DA:1626,0
DA:1628,0
DA:1629,0
DA:1630,0
DA:1631,0
DA:1632,0
DA:1633,0
DA:1634,0
DA:1635,0
DA:1636,0
DA:1637,0
DA:1638,0
DA:1641,0
DA:1642,0
DA:1643,0
DA:1645,0
DA:1647,0
DA:1648,0
DA:1649,0
DA:1651,0
DA:1652,0
DA:1653,0
DA:1654,0
DA:1655,0
DA:1656,0
DA:1657,0
DA:1659,0
DA:1662,0
DA:1664,0
DA:1665,0
DA:1666,0
DA:1668,0
DA:1669,0
DA:1670,0
DA:1671,0
DA:1672,0
DA:1673,0
DA:1675,0
DA:1677,0
DA:1678,0
DA:1680,0
DA:1683,0
DA:1686,0
DA:1689,0
DA:1690,0
DA:1691,0
DA:1692,0
DA:1695,0
DA:1696,0
DA:1697,0
DA:1699,0
DA:1700,0
DA:1701,0
DA:1702,0
DA:1703,0
DA:1704,0
DA:1705,0
DA:1706,0
DA:1707,0
DA:1708,0
DA:1709,0
DA:1712,0
DA:1713,0
DA:1716,0
DA:1720,0
DA:1721,0
DA:1722,0
DA:1723,0
DA:1724,0
DA:1725,0
DA:1726,0
DA:1727,0
DA:1728,0
DA:1729,0
DA:1730,0
DA:1731,0
DA:1732,0
DA:1733,0
DA:1734,0
DA:1735,0
DA:1738,0
DA:1739,0
DA:1740,0
DA:1741,0
DA:1742,0
DA:1743,0
DA:1744,0
DA:1745,0
DA:1746,0
DA:1747,0
DA:1751,0
DA:1752,0
DA:1753,0
DA:1755,0
DA:1756,0
DA:1757,0
DA:1758,0
DA:1759,0
DA:1760,0
DA:1761,0
DA:1765,0
DA:1770,0
DA:1771,0
DA:1772,0
DA:1774,0
DA:1775,0
DA:1776,0
DA:1777,0
DA:1778,0
DA:1779,0
DA:1780,0
DA:1781,0
DA:1782,0
DA:1783,0
DA:1784,0
DA:1786,0
DA:1787,0
DA:1788,0
DA:1789,0
DA:1790,0
DA:1791,0
DA:1792,0
DA:1793,0
DA:1794,0
DA:1795,0
DA:1797,0
DA:1798,0
DA:1799,0
DA:1800,0
DA:1802,0
DA:1803,0
DA:1805,0
DA:1806,0
DA:1807,0
DA:1808,0
DA:1809,0
DA:1810,0
DA:1811,0
DA:1812,0
DA:1813,0
DA:1814,0
DA:1817,0
DA:1818,0
DA:1822,0
DA:1827,0
DA:1828,0
DA:1829,0
DA:1831,0
DA:1832,0
DA:1833,0
DA:1834,0
DA:1835,0
DA:1836,0
DA:1837,0
DA:1838,0
DA:1839,0
DA:1840,0
DA:1841,0
DA:1843,0
DA:1844,0
DA:1845,0
DA:1846,0
DA:1847,0
DA:1848,0
DA:1849,0
DA:1850,0
DA:1851,0
DA:1852,0
DA:1855,0
DA:1856,0
DA:1857,0
DA:1858,0
DA:1860,0
DA:1862,0
DA:1863,0
DA:1864,0
DA:1866,0
DA:1867,0
DA:1868,0
DA:1869,0
DA:1870,0
DA:1871,0
DA:1872,0
DA:1874,0
DA:1877,0
DA:1879,0
DA:1880,0
DA:1881,0
DA:1883,0
DA:1884,0
DA:1885,0
DA:1886,0
DA:1887,0
DA:1888,0
DA:1890,0
DA:1892,0
DA:1893,0
DA:1895,0
DA:1896,0
DA:1897,0
DA:1900,0
DA:1903,0
DA:1905,0
DA:1906,0
DA:1907,0
DA:1908,0
DA:1910,0
DA:1914,0
DA:1915,0
DA:1916,0
DA:1918,0
DA:1919,0
DA:1920,0
DA:1921,0
DA:1922,0
DA:1923,0
DA:1924,0
DA:1925,0
DA:1926,0
DA:1929,0
DA:1930,0
DA:1933,0
DA:1936,0
DA:1937,0
DA:1938,0
DA:1939,0
DA:1940,0
DA:1941,0
DA:1942,0
DA:1943,0
DA:1944,0
DA:1945,0
DA:1946,0
DA:1947,0
DA:1948,0
DA:1949,0
DA:1950,0
DA:1951,0
DA:1952,0
DA:1953,0
DA:1954,0
DA:1955,0
DA:1956,0
DA:1957,0
DA:1958,0
DA:1959,0
DA:1960,0
DA:1961,0
DA:1962,0
DA:1963,0
DA:1964,0
DA:1965,0
DA:1966,0
DA:1967,0
DA:1968,0
DA:1969,0
DA:1971,0
DA:1972,0
DA:1973,0
DA:1974,0
DA:1975,0
DA:1976,0
DA:1977,0
DA:1978,0
DA:1979,0
DA:1980,0
DA:1981,0
DA:1982,0
DA:1983,0
DA:1984,0
DA:1985,0
DA:1986,0
DA:1987,0
DA:1988,0
DA:1991,0
DA:1992,0
DA:1993,0
DA:1994,0
DA:1995,0
DA:1996,0
DA:1997,0
DA:1998,0
DA:1999,0
DA:2000,0
DA:2002,0
DA:2003,0
DA:2006,4
DA:2007,4
DA:2008,4
DA:2011,0
DA:2012,0
DA:2013,0
DA:2016,2
DA:2017,2
DA:2018,2
DA:2019,2
DA:2020,2
DA:2021,0
DA:2022,2
DA:2023,2
DA:2024,2
DA:2025,2
DA:2027,2
DA:2028,2
DA:2029,2
DA:2030,2
DA:2031,2
DA:2032,2
DA:2035,2
DA:2036,2
DA:2037,0
DA:2038,0
DA:2039,0
DA:2040,2
DA:2041,2
DA:2042,2
DA:2043,0
DA:2044,2
DA:2045,2
DA:2046,2
DA:2047,2
DA:2048,2
DA:2049,2
DA:2050,30720
DA:2051,30720
DA:2052,30720
DA:2054,0
DA:2056,30720
DA:2059,2
DA:2060,2
DA:2061,2
DA:2062,2
DA:2063,2
DA:2064,2
DA:2065,2
DA:2066,2
DA:2067,2
DA:2068,2
DA:2069,2
DA:2070,2
DA:2071,2
DA:2072,2
DA:2073,2
DA:2074,0
DA:2076,2
DA:2077,2
DA:2080,3
DA:2081,3
DA:2083,3
DA:2084,3
DA:2085,3
DA:2086,3
DA:2087,3
DA:2088,1
DA:2089,2
DA:2092,50
DA:2093,50
DA:2095,50
DA:2096,50
DA:2097,50
DA:2099,50
DA:2100,20
DA:2101,30
DA:2103,0
DA:2105,3
DA:2106,3
DA:2109,1
DA:2110,1
DA:2111,1
DA:2112,1
DA:2113,1
DA:2114,1
DA:2115,0
DA:2116,1
DA:2117,1
DA:2118,1
DA:2119,1
DA:2120,1
DA:2121,1
DA:2122,1
DA:2123,1
DA:2124,0
DA:2126,1
DA:2127,1
DA:2130,0
DA:2131,0
DA:2132,0
DA:2135,1
DA:2136,1
DA:2137,1
DA:2138,1
DA:2139,1
DA:2143,0
DA:2144,0
DA:2145,0
DA:2146,0
DA:2147,0
DA:2148,0
DA:2149,0
DA:2150,0
DA:2151,0
DA:2152,0
DA:2153,0
DA:2154,0
DA:2155,0
DA:2156,0
DA:2157,0
DA:2158,0
DA:2160,0
DA:2161,0
DA:2163,0
DA:2166,0
DA:2168,0
DA:2171,17
DA:2172,17
DA:2173,17
DA:2176,0
DA:2177,0
DA:2178,0
DA:2181,1
DA:2182,1
DA:2183,1
DA:2184,1
DA:2185,1
DA:2186,1
DA:2189,28
DA:2190,28
DA:2191,28
DA:2194,1
DA:2195,1
DA:2196,1
DA:2199,6
DA:2200,6
DA:2201,6
DA:2202,6
DA:2203,6
DA:2204,6
DA:2205,6
DA:2206,6
DA:2207,6
DA:2208,6
DA:2209,6
DA:2212,6
DA:2213,6
DA:2214,6
DA:2215,6
DA:2216,6
DA:2217,6
DA:2218,6
DA:2221,8
DA:2222,8
DA:2223,8
DA:2224,8
DA:2225,8
DA:2239,8
DA:2240,1
DA:2242,5
DA:2243,4
DA:2244,4
DA:2245,4
DA:2246,4
DA:2247,4
DA:2248,4
DA:2249,4
DA:2252,3
DA:2253,3
DA:2254,3
DA:2255,3
DA:2256,3
DA:2257,1
DA:2258,1
DA:2259,7
DA:2260,7
DA:2261,7
DA:2262,7
DA:2263,7
DA:2264,7
DA:2265,7
DA:2269,7
DA:2270,7
DA:2271,7
DA:2272,7
DA:2275,0
DA:2280,32
DA:2281,25
DA:2282,10
DA:2284,5
DA:2285,5
DA:2286,5
DA:2287,5
DA:2288,5
DA:2289,5
DA:2291,20
DA:2295,7
DA:2296,3
DA:2298,0
DA:2301,0
DA:2302,0
DA:2303,0
DA:2307,0
DA:2308,0
DA:2309,0
DA:2310,0
DA:2311,0
DA:2312,0
DA:2313,0
DA:2314,0
DA:2315,0
DA:2316,0
DA:2319,0
DA:2320,0
DA:2321,0
DA:2322,0
DA:2323,0
DA:2326,0
DA:2329,0
DA:2330,0
DA:2331,0
DA:2332,0
DA:2337,3
DA:2338,3
DA:2339,3
DA:2340,264
DA:2341,264
DA:2342,264
DA:2343,264
DA:2344,264
DA:2345,2
DA:2346,2
DA:2348,260
DA:2349,260
DA:2350,260
DA:2351,260
DA:2352,260
DA:2355,264
DA:2357,10
DA:2358,10
DA:2359,10
DA:2361,4
DA:2364,7
DA:2366,22
DA:2367,15
DA:2368,0
DA:2369,15
DA:2370,15
DA:2371,15
DA:2372,15
DA:2373,15
DA:2375,30
DA:2376,15
DA:2377,15
DA:2378,15
DA:2380,15
DA:2381,15
DA:2383,0
DA:2387,15
DA:2388,15
DA:2389,15
DA:2390,15
DA:2391,15
DA:2392,15
DA:2393,15
DA:2394,15
DA:2395,15
DA:2396,15
DA:2397,15
DA:2398,15
DA:2401,8
DA:2402,8
DA:2403,8
DA:2404,8
DA:2405,8
DA:2406,7
DA:2407,7
DA:2408,7
DA:2409,7
DA:2410,8
DA:2413,1
DA:2414,1
DA:2415,1
DA:2416,1
DA:2417,1
DA:2421,1
DA:2422,1
DA:2423,1
DA:2424,1
DA:2425,1
DA:2426,1
DA:2427,1
DA:2428,1
DA:2429,1
DA:2430,1
DA:2431,1
DA:2434,0
DA:2435,0
DA:2436,0
DA:2437,0
DA:2438,0
DA:2439,0
DA:2440,0
DA:2441,0
DA:2442,0
DA:2445,0
DA:2446,0
DA:2447,0
DA:2448,0
DA:2449,0
DA:2451,0
DA:2454,0
DA:2455,0
DA:2456,0
DA:2457,0
DA:2458,0
DA:2460,0
DA:2461,0
DA:2462,0
DA:2463,0
DA:2464,0
DA:2465,0
DA:2466,0
DA:2467,0
DA:2468,0
DA:2469,0
DA:2470,0
DA:2471,0
DA:2475,0
DA:2476,0
DA:2477,0
DA:2478,0
DA:2481,0
DA:2482,0
DA:2483,0
DA:2486,0
DA:2487,0
DA:2488,0
DA:2489,0
DA:2490,0
DA:2492,0
DA:2493,0
DA:2494,0
DA:2497,0
DA:2498,0
DA:2499,0
DA:2500,0
DA:2501,0
DA:2503,0
DA:2506,0
DA:2507,0
DA:2508,0
DA:2509,0
DA:2510,0
DA:2511,0
DA:2512,0
DA:2513,0
DA:2514,0
DA:2515,0
DA:2516,0
DA:2517,0
DA:2518,0
DA:2519,0
DA:2520,0
DA:2521,0
DA:2525,0
DA:2526,0
DA:2527,0
DA:2528,0
DA:2529,0
DA:2530,0
DA:2531,0
DA:2532,0
DA:2533,0
DA:2534,0
DA:2535,0
DA:2536,0
DA:2537,0
DA:2538,0
DA:2539,0
DA:2540,0
DA:2542,0
DA:2545,0
DA:2546,0
DA:2547,0
DA:2548,0
DA:2549,0
DA:2550,0
DA:2551,0
DA:2553,0
DA:2554,0
DA:2555,0
DA:2558,0
DA:2559,0
DA:2560,0
DA:2561,0
DA:2562,0
DA:2563,0
DA:2566,0
DA:2567,0
DA:2568,0
DA:2569,0
DA:2570,0
DA:2571,0
DA:2574,0
DA:2575,0
DA:2576,0
DA:2577,0
DA:2578,0
DA:2579,0
DA:2580,0
DA:2583,0
DA:2584,0
DA:2587,0
DA:2588,0
DA:2589,0
DA:2590,0
DA:2591,0
DA:2592,0
DA:2595,0
DA:2596,0
DA:2597,0
DA:2600,0
DA:2601,0
DA:2602,0
DA:2603,0
DA:2606,4
DA:2607,4
DA:2608,4
DA:2611,17
DA:2612,17
DA:2613,17
DA:2616,25
DA:2617,25
DA:2618,25
DA:2621,2
DA:2622,2
DA:2623,2
DA:2626,0
DA:2627,0
DA:2628,0
DA:2629,0
DA:2630,0
DA:2631,0
DA:2632,0
DA:2633,0
DA:2634,0
DA:2635,0
DA:2638,0
DA:2639,0
DA:2640,0
DA:2641,0
DA:2642,0
DA:2643,0
DA:2665,0
DA:2666,0
DA:2667,0
DA:2670,0
DA:2671,0
DA:2672,0
DA:2675,0
DA:2676,0
DA:2677,0
DA:2678,0
DA:2679,0
DA:2680,0
DA:2681,0
DA:2682,0
DA:2685,0
DA:2686,0
DA:2687,0
DA:2690,0
DA:2691,0
DA:2692,0
DA:2693,0
DA:2695,0
DA:2697,0
DA:2698,0
DA:2699,0
DA:2700,0
DA:2701,0
DA:2702,0
DA:2705,0
DA:2706,0
DA:2707,0
DA:2708,0
DA:2709,0
DA:2710,0
DA:2711,0
DA:2712,0
DA:2713,0
DA:2714,0
DA:2715,0
DA:2716,0
DA:2717,0
DA:2719,0
DA:2720,0
DA:2721,0
DA:2722,0
DA:2723,0
DA:2724,0
DA:2727,0
DA:2728,0
DA:2729,0
DA:2731,0
DA:2732,0
DA:2733,0
DA:2734,0
DA:2735,0
DA:2736,0
DA:2737,0
DA:2738,0
DA:2739,0
DA:2740,0
DA:2741,0
DA:2743,0
DA:2744,0
DA:2745,0
DA:2746,0
DA:2748,0
DA:2751,0
DA:2752,0
DA:2753,0
DA:2754,0
DA:2755,0
DA:2756,0
DA:2757,0
DA:2759,0
DA:2760,0
DA:2763,0
DA:2764,0
DA:2765,0
DA:2766,0
DA:2767,0
DA:2768,0
DA:2771,0
DA:2772,0
DA:2773,0
DA:2774,0
DA:2775,0
DA:2776,0
DA:2779,0
DA:2780,0
DA:2781,0
DA:2782,0
DA:2783,0
DA:2784,0
DA:2785,0
DA:2786,0
DA:2787,0
DA:2788,0
DA:2789,0
DA:2790,0
DA:2791,0
DA:2794,0
DA:2797,0
DA:2798,0
DA:2799,0
DA:2800,0
DA:2801,0
DA:2802,0
DA:2803,0
DA:2804,0
DA:2806,0
DA:2809,0
DA:2810,0
DA:2811,0
DA:2812,0
DA:2813,0
DA:2814,0
DA:2815,0
DA:2816,0
DA:2817,0
DA:2818,0
DA:2819,0
DA:2820,0
DA:2821,0
DA:2822,0
DA:2823,0
DA:2824,0
DA:2825,0
DA:2826,0
DA:2827,0
DA:2828,0
DA:2829,0
DA:2830,0
DA:2831,0
DA:2832,0
DA:2835,0
DA:2836,0
DA:2845,1
DA:2846,1
DA:2847,1
DA:2848,1
DA:2851,1
DA:2852,1
DA:2853,1
DA:2854,1
DA:2855,1
DA:2856,1
DA:2858,1
DA:2859,1
DA:2860,1
DA:2863,1
DA:2864,1
DA:2865,1
DA:2866,1
DA:2867,1
DA:2868,1
DA:2869,1
DA:2870,1
DA:2871,1
DA:2872,1
DA:2873,1
DA:2876,1
DA:2877,1
DA:2878,1
DA:2883,1
DA:2884,1
DA:2885,1
DA:2886,1
DA:2887,1
DA:2890,1
DA:2891,1
DA:2892,1
DA:2895,1
DA:2896,1
DA:2897,1
DA:2901,1
DA:2902,1
DA:2903,1
DA:2904,1
DA:2905,1
DA:2906,1
DA:2907,1
DA:2908,1
DA:2909,0
DA:2911,1
DA:2912,1
DA:2914,0
DA:2918,6
DA:2919,5
DA:2920,5
DA:2922,0
DA:2924,5
DA:2928,1
DA:2929,1
DA:2930,1
DA:2931,1
DA:2932,0
DA:2937,1
DA:2938,6
DA:2939,5
DA:2940,5
DA:2941,0
DA:2944,1
DA:2947,1
DA:2948,1
DA:2949,1
DA:2950,1
DA:2951,1
DA:2952,1
DA:2955,1
DA:2956,1
DA:2958,1
DA:2959,1
DA:2961,1
DA:2962,1
DA:2963,1
DA:2966,1
DA:2967,1
DA:2968,1
DA:2969,1
DA:2972,1
DA:2973,1
DA:2974,1
DA:2975,1
DA:2976,1
DA:2977,11
DA:2978,10
DA:2979,10
DA:2982,1
DA:2985,1
DA:2986,1
DA:2987,1
DA:2990,1
DA:2993,1
DA:2994,1
DA:2995,1
DA:2998,1
DA:2999,1
DA:3000,1
DA:3001,1
DA:3002,1
DA:3003,51
DA:3004,50
DA:3005,50
DA:3008,1
DA:3009,1
DA:3010,1
DA:3011,1
DA:3012,1
DA:3013,1
DA:3016,1
DA:3017,1
DA:3018,1
DA:3021,1
DA:3022,1
DA:3023,1
DA:3024,1
DA:3025,1
DA:3026,21
DA:3027,20
DA:3028,20
DA:3031,1
DA:3032,1
DA:3035,1
DA:3038,1
DA:3039,1
DA:3042,1
DA:3043,1
DA:3044,1
DA:3071,1
DA:3072,1
DA:3073,1
DA:3077,1
DA:3078,1
DA:3079,1
DA:3080,1
DA:3081,1
DA:3082,1
DA:3083,1
DA:3084,1
DA:3085,1
DA:3088,1
DA:3089,1
DA:3090,1
DA:3091,2
DA:3092,1
DA:3093,1
DA:3094,1
DA:3095,1
DA:3096,1
DA:3099,1
DA:3102,1
DA:3103,1
DA:3106,101
DA:3107,100
DA:3108,100
DA:3111,1
DA:3114,101
DA:3115,100
DA:3116,100
DA:3118,1
DA:3119,1
DA:3120,1
DA:3121,1
DA:3122,11
DA:3123,10
DA:3124,10
DA:3125,1
DA:3126,1
DA:3127,1
DA:3128,1
DA:3129,1
DA:3130,0
DA:3131,0
DA:3133,1
DA:3134,1
DA:3135,0
DA:3136,0
DA:3138,1
DA:3141,1
DA:3142,1
DA:3143,1
DA:3144,1
DA:3145,1
DA:3146,1
DA:3148,1001
DA:3149,1000
DA:3150,1000
DA:3152,1
DA:3153,1
DA:3156,1
DA:3157,1
DA:3160,1
DA:3163,1
DA:3164,1
DA:3165,1
DA:3166,1
DA:3167,1
DA:3168,1
DA:3169,1
DA:3170,1
DA:3171,1
DA:3174,1
DA:3175,1
DA:3176,1
DA:3177,1
DA:3178,1
DA:3179,1
DA:3180,1
DA:3181,1
DA:3182,1
DA:3183,1
DA:3184,1
DA:3185,1
DA:3186,1
DA:3187,1
DA:3188,1
DA:3191,1
DA:3192,1
DA:3193,1
DA:3194,1
DA:3195,1
DA:3198,1
DA:3202,1
DA:3203,1
DA:3204,1
DA:3205,1
DA:3206,1
DA:3207,1
DA:3208,1
DA:3209,1
DA:3210,1
DA:3211,1
DA:3212,1
DA:3213,1
DA:3214,1
DA:3215,1
DA:3216,1
DA:3217,1
DA:3218,1
DA:3219,1
DA:3220,1
DA:3221,1
DA:3222,1
DA:3223,1
DA:3226,1
DA:3227,1
DA:3228,1
DA:3229,1
DA:3230,1
DA:3233,1
DA:3236,1
DA:3237,1
DA:3238,1
DA:3239,1
DA:3240,1
DA:3241,1
DA:3242,1
DA:3243,1
DA:3244,1
DA:3245,1
DA:3248,1
DA:3249,1
DA:3250,1
DA:3251,1
DA:3252,1
DA:3253,1
DA:3254,1
DA:3255,1
DA:3256,1
DA:3257,1
DA:3258,1
DA:3259,1
DA:3260,1
DA:3261,1
DA:3262,1
DA:3263,1
DA:3264,1
DA:3265,1
DA:3266,1
DA:3269,1
DA:3270,1
DA:3271,1
DA:3272,1
DA:3273,1
DA:3274,1
DA:3277,1
DA:3278,1
DA:3281,1
DA:3282,1
DA:3285,1
DA:3286,1
DA:3287,1
DA:3288,1
DA:3291,1
DA:3292,1
DA:3293,1
DA:3294,1
DA:3295,1
DA:3296,1
DA:3297,1
DA:3298,1
DA:3299,1
DA:3300,1
DA:3301,1
DA:3302,1
DA:3303,1
DA:3304,1
DA:3305,1
DA:3306,1
DA:3307,1
DA:3308,1
DA:3309,1
DA:3310,1
DA:3311,1
DA:3312,1
DA:3313,1
DA:3316,1
DA:3317,1
DA:3318,1
DA:3319,1
DA:3320,1
DA:3321,1
DA:3322,1
DA:3323,1
DA:3324,1
DA:3325,1
BRF:0
BRH:0
LF:2360
LH:901
end_of_record
SF:/home/justin/Projects/chess-vector-engine/src/license.rs
FN:477,_RNvNtNtCsh06HHTBymxI_19chess_vector_engine7license5testss_17test_demo_license
FN:542,_RNvNtNtCsh06HHTBymxI_19chess_vector_engine7license5testss_18test_license_cache
FN:516,_RNvNtNtCsh06HHTBymxI_19chess_vector_engine7license5testss_20test_invalid_license
FN:490,_RNvNtNtCsh06HHTBymxI_19chess_vector_engine7license5testss_20test_premium_license
FN:503,_RNvNtNtCsh06HHTBymxI_19chess_vector_engine7license5testss_23test_enterprise_license
FN:524,_RNvNtNtCsh06HHTBymxI_19chess_vector_engine7license5testss_29test_licensed_feature_checker
FN:431,_RINvMs1_NtCsh06HHTBymxI_19chess_vector_engine7licenseNtB6_22LicensedFeatureChecker10load_cachepEB8_
FN:439,_RINvMs1_NtCsh06HHTBymxI_19chess_vector_engine7licenseNtB6_22LicensedFeatureChecker10save_cachepEB8_
FN:355,_RNvMs1_NtCsh06HHTBymxI_19chess_vector_engine7licenseNtB5_22LicensedFeatureChecker3new
FN:477,_RNCNvNtNtCsh06HHTBymxI_19chess_vector_engine7license5testss_17test_demo_license0B7_
FN:516,_RNCNvNtNtCsh06HHTBymxI_19chess_vector_engine7license5testss_20test_invalid_license0B7_
FN:490,_RNCNvNtNtCsh06HHTBymxI_19chess_vector_engine7license5testss_20test_premium_license0B7_
FN:503,_RNCNvNtNtCsh06HHTBymxI_19chess_vector_engine7license5testss_23test_enterprise_license0B7_
FN:524,_RNCNvNtNtCsh06HHTBymxI_19chess_vector_engine7license5testss_29test_licensed_feature_checker0B7_
FN:462,_RNvXs2_NtCsh06HHTBymxI_19chess_vector_engine7licenseNtNtCs9sjCchOt1K7_4core4time8DurationNtB5_11DurationExt10from_hours
FN:466,_RNvXs2_NtCsh06HHTBymxI_19chess_vector_engine7licenseNtNtCs9sjCchOt1K7_4core4time8DurationNtB5_11DurationExt9from_days
FN:160,_RINvMs0_NtCsh06HHTBymxI_19chess_vector_engine7licenseNtB6_15LicenseVerifier10load_cacheRNtNtCseJswNlh1fGO_3std4path4PathEB8_
FN:172,_RINvMs0_NtCsh06HHTBymxI_19chess_vector_engine7licenseNtB6_15LicenseVerifier10save_cacheRNtNtCseJswNlh1fGO_3std4path4PathEB8_
FN:253,_RNCNCNvMs0_NtCsh06HHTBymxI_19chess_vector_engine7licenseNtB9_15LicenseVerifier21check_feature_license00Bb_
FN:281,_RNCNvMs0_NtCsh06HHTBymxI_19chess_vector_engine7licenseNtB7_15LicenseVerifier13verify_online0B9_
FN:182,_RNCNvMs0_NtCsh06HHTBymxI_19chess_vector_engine7licenseNtB7_15LicenseVerifier14verify_license0B9_
FN:244,_RNCNvMs0_NtCsh06HHTBymxI_19chess_vector_engine7licenseNtB7_15LicenseVerifier21check_feature_license0B9_
FN:393,_RNCNvMs1_NtCsh06HHTBymxI_19chess_vector_engine7licenseNtB7_22LicensedFeatureChecker13check_feature0B9_
FN:373,_RNCNvMs1_NtCsh06HHTBymxI_19chess_vector_engine7licenseNtB7_22LicensedFeatureChecker16activate_license0B9_
FN:234,_RNvMs0_NtCsh06HHTBymxI_19chess_vector_engine7licenseNtB5_15LicenseVerifier11add_license
FN:92,_RNvMs0_NtCsh06HHTBymxI_19chess_vector_engine7licenseNtB5_15LicenseVerifier11new_offline
FN:281,_RNvMs0_NtCsh06HHTBymxI_19chess_vector_engine7licenseNtB5_15LicenseVerifier13verify_online
FN:335,_RNvMs0_NtCsh06HHTBymxI_19chess_vector_engine7licenseNtB5_15LicenseVerifier14is_cache_valid
FN:182,_RNvMs0_NtCsh06HHTBymxI_19chess_vector_engine7licenseNtB5_15LicenseVerifier14verify_license
FN:341,_RNvMs0_NtCsh06HHTBymxI_19chess_vector_engine7licenseNtB5_15LicenseVerifier16is_license_valid
FN:109,_RNvMs0_NtCsh06HHTBymxI_19chess_vector_engine7licenseNtB5_15LicenseVerifier17add_demo_licenses
FN:240,_RNvMs0_NtCsh06HHTBymxI_19chess_vector_engine7licenseNtB5_15LicenseVerifier21check_feature_license
FN:79,_RNvMs0_NtCsh06HHTBymxI_19chess_vector_engine7licenseNtB5_15LicenseVerifier3new
FN:364,_RNvMs1_NtCsh06HHTBymxI_19chess_vector_engine7licenseNtB5_22LicensedFeatureChecker11new_offline
FN:393,_RNvMs1_NtCsh06HHTBymxI_19chess_vector_engine7licenseNtB5_22LicensedFeatureChecker13check_feature
FN:373,_RNvMs1_NtCsh06HHTBymxI_19chess_vector_engine7licenseNtB5_22LicensedFeatureChecker16activate_license
FN:426,_RNvMs1_NtCsh06HHTBymxI_19chess_vector_engine7licenseNtB5_22LicensedFeatureChecker16get_current_tier
FN:448,_RNvNtCsh06HHTBymxI_19chess_vector_engine7license17current_timestamp
FN:39,_RNvXNtCsh06HHTBymxI_19chess_vector_engine7licenseNtB2_12LicenseErrorNtNtCs9sjCchOt1K7_4core3fmt7Display3fmt
FNDA:1,_RNvNtNtCsh06HHTBymxI_19chess_vector_engine7license5testss_17test_demo_license
FNDA:1,_RNvNtNtCsh06HHTBymxI_19chess_vector_engine7license5testss_18test_license_cache
FNDA:1,_RNvNtNtCsh06HHTBymxI_19chess_vector_engine7license5testss_20test_invalid_license
FNDA:1,_RNvNtNtCsh06HHTBymxI_19chess_vector_engine7license5testss_20test_premium_license
FNDA:1,_RNvNtNtCsh06HHTBymxI_19chess_vector_engine7license5testss_23test_enterprise_license
FNDA:0,_RNvNtNtCsh06HHTBymxI_19chess_vector_engine7license5testss_29test_licensed_feature_checker
FNDA:0,_RINvMs1_NtCsh06HHTBymxI_19chess_vector_engine7licenseNtB6_22LicensedFeatureChecker10load_cachepEB8_
FNDA:0,_RINvMs1_NtCsh06HHTBymxI_19chess_vector_engine7licenseNtB6_22LicensedFeatureChecker10save_cachepEB8_
FNDA:0,_RNvMs1_NtCsh06HHTBymxI_19chess_vector_engine7licenseNtB5_22LicensedFeatureChecker3new
FNDA:1,_RNCNvNtNtCsh06HHTBymxI_19chess_vector_engine7license5testss_17test_demo_license0B7_
FNDA:1,_RNCNvNtNtCsh06HHTBymxI_19chess_vector_engine7license5testss_20test_invalid_license0B7_
FNDA:1,_RNCNvNtNtCsh06HHTBymxI_19chess_vector_engine7license5testss_20test_premium_license0B7_
FNDA:1,_RNCNvNtNtCsh06HHTBymxI_19chess_vector_engine7license5testss_23test_enterprise_license0B7_
FNDA:0,_RNCNvNtNtCsh06HHTBymxI_19chess_vector_engine7license5testss_29test_licensed_feature_checker0B7_
FNDA:4,_RNvXs2_NtCsh06HHTBymxI_19chess_vector_engine7licenseNtNtCs9sjCchOt1K7_4core4time8DurationNtB5_11DurationExt10from_hours
FNDA:2,_RNvXs2_NtCsh06HHTBymxI_19chess_vector_engine7licenseNtNtCs9sjCchOt1K7_4core4time8DurationNtB5_11DurationExt9from_days
FNDA:1,_RINvMs0_NtCsh06HHTBymxI_19chess_vector_engine7licenseNtB6_15LicenseVerifier10load_cacheRNtNtCseJswNlh1fGO_3std4path4PathEB8_
FNDA:1,_RINvMs0_NtCsh06HHTBymxI_19chess_vector_engine7licenseNtB6_15LicenseVerifier10save_cacheRNtNtCseJswNlh1fGO_3std4path4PathEB8_
FNDA:0,_RNCNCNvMs0_NtCsh06HHTBymxI_19chess_vector_engine7licenseNtB9_15LicenseVerifier21check_feature_license00Bb_
FNDA:4,_RNCNvMs0_NtCsh06HHTBymxI_19chess_vector_engine7licenseNtB7_15LicenseVerifier13verify_online0B9_
FNDA:4,_RNCNvMs0_NtCsh06HHTBymxI_19chess_vector_engine7licenseNtB7_15LicenseVerifier14verify_license0B9_
FNDA:0,_RNCNvMs0_NtCsh06HHTBymxI_19chess_vector_engine7licenseNtB7_15LicenseVerifier21check_feature_license0B9_
FNDA:0,_RNCNvMs1_NtCsh06HHTBymxI_19chess_vector_engine7licenseNtB7_22LicensedFeatureChecker13check_feature0B9_
FNDA:0,_RNCNvMs1_NtCsh06HHTBymxI_19chess_vector_engine7licenseNtB7_22LicensedFeatureChecker16activate_license0B9_
FNDA:1,_RNvMs0_NtCsh06HHTBymxI_19chess_vector_engine7licenseNtB5_15LicenseVerifier11add_license
FNDA:2,_RNvMs0_NtCsh06HHTBymxI_19chess_vector_engine7licenseNtB5_15LicenseVerifier11new_offline
FNDA:4,_RNvMs0_NtCsh06HHTBymxI_19chess_vector_engine7licenseNtB5_15LicenseVerifier13verify_online
FNDA:0,_RNvMs0_NtCsh06HHTBymxI_19chess_vector_engine7licenseNtB5_15LicenseVerifier14is_cache_valid
FNDA:4,_RNvMs0_NtCsh06HHTBymxI_19chess_vector_engine7licenseNtB5_15LicenseVerifier14verify_license
FNDA:3,_RNvMs0_NtCsh06HHTBymxI_19chess_vector_engine7licenseNtB5_15LicenseVerifier16is_license_valid
FNDA:2,_RNvMs0_NtCsh06HHTBymxI_19chess_vector_engine7licenseNtB5_15LicenseVerifier17add_demo_licenses
FNDA:0,_RNvMs0_NtCsh06HHTBymxI_19chess_vector_engine7licenseNtB5_15LicenseVerifier21check_feature_license
FNDA:4,_RNvMs0_NtCsh06HHTBymxI_19chess_vector_engine7licenseNtB5_15LicenseVerifier3new
FNDA:0,_RNvMs1_NtCsh06HHTBymxI_19chess_vector_engine7licenseNtB5_22LicensedFeatureChecker11new_offline
FNDA:0,_RNvMs1_NtCsh06HHTBymxI_19chess_vector_engine7licenseNtB5_22LicensedFeatureChecker13check_feature
FNDA:0,_RNvMs1_NtCsh06HHTBymxI_19chess_vector_engine7licenseNtB5_22LicensedFeatureChecker16activate_license
FNDA:0,_RNvMs1_NtCsh06HHTBymxI_19chess_vector_engine7licenseNtB5_22LicensedFeatureChecker16get_current_tier
FNDA:29,_RNvNtCsh06HHTBymxI_19chess_vector_engine7license17current_timestamp
FNDA:0,_RNvXNtCsh06HHTBymxI_19chess_vector_engine7licenseNtB2_12LicenseErrorNtNtCs9sjCchOt1K7_4core3fmt7Display3fmt
FNF:39
FNH:23
DA:39,0
DA:40,0
DA:41,0
DA:42,0
DA:44,0
DA:45,0
DA:47,0
DA:48,0
DA:50,0
DA:51,0
DA:53,0
DA:54,0
DA:57,0
DA:79,4
DA:80,4
DA:81,4
DA:82,4
DA:83,4
DA:84,4
DA:85,4
DA:86,4
DA:87,4
DA:88,4
DA:89,4
DA:92,2
DA:93,2
DA:94,2
DA:95,2
DA:96,2
DA:97,2
DA:98,2
DA:99,2
DA:100,2
DA:101,2
DA:102,2
DA:103,2
DA:104,2
DA:105,2
DA:106,2
DA:109,2
DA:110,2
DA:111,2
DA:112,2
DA:113,2
DA:114,2
DA:115,2
DA:116,2
DA:117,2
DA:118,2
DA:119,2
DA:120,2
DA:121,2
DA:122,2
DA:123,2
DA:124,2
DA:125,2
DA:126,2
DA:127,2
DA:128,2
DA:129,2
DA:130,2
DA:131,2
DA:132,2
DA:133,2
DA:134,2
DA:135,2
DA:136,2
DA:137,2
DA:138,2
DA:139,2
DA:140,2
DA:141,2
DA:142,2
DA:143,2
DA:144,2
DA:145,2
DA:146,2
DA:147,2
DA:148,2
DA:149,2
DA:150,2
DA:151,2
DA:152,2
DA:154,8
DA:155,6
DA:156,6
DA:157,2
DA:160,1
DA:161,1
DA:162,1
DA:163,1
DA:164,1
DA:165,1
DA:166,1
DA:167,0
DA:168,1
DA:169,1
DA:172,1
DA:173,1
DA:174,1
DA:175,1
DA:176,1
DA:177,1
DA:178,1
DA:179,1
DA:182,4
DA:184,4
DA:185,0
DA:186,0
DA:187,0
DA:188,0
DA:189,0
DA:190,4
DA:193,4
DA:194,4
DA:195,3
DA:196,3
DA:197,3
DA:198,3
DA:199,3
DA:200,3
DA:201,3
DA:203,0
DA:206,1
DA:208,1
DA:209,0
DA:210,0
DA:212,0
DA:215,1
DA:221,0
DA:222,0
DA:223,0
DA:225,0
DA:228,0
DA:231,4
DA:234,1
DA:235,1
DA:236,1
DA:237,1
DA:240,0
DA:241,0
DA:242,0
DA:243,0
DA:244,0
DA:245,0
DA:247,0
DA:248,0
DA:249,0
DA:250,0
DA:251,0
DA:252,0
DA:253,0
DA:256,0
DA:257,0
DA:260,0
DA:261,0
DA:262,0
DA:264,0
DA:265,0
DA:266,0
DA:267,0
DA:271,0
DA:272,0
DA:273,0
DA:274,0
DA:275,0
DA:276,0
DA:278,0
DA:281,4
DA:282,4
DA:283,4
DA:284,4
DA:285,4
DA:286,1
DA:287,1
DA:288,1
DA:289,1
DA:290,1
DA:291,1
DA:292,1
DA:293,1
DA:294,1
DA:295,1
DA:296,1
DA:297,1
DA:298,3
DA:299,1
DA:300,1
DA:301,1
DA:302,1
DA:303,1
DA:304,1
DA:305,1
DA:306,1
DA:307,1
DA:308,1
DA:309,1
DA:310,1
DA:311,1
DA:312,1
DA:313,1
DA:314,2
DA:315,1
DA:316,1
DA:317,1
DA:318,1
DA:319,1
DA:320,1
DA:321,1
DA:322,1
DA:323,1
DA:324,1
DA:325,1
DA:326,1
DA:327,1
DA:328,1
DA:330,1
DA:332,4
DA:335,0
DA:336,0
DA:337,0
DA:338,0
DA:341,3
DA:342,3
DA:343,3
DA:355,0
DA:356,0
DA:357,0
DA:358,0
DA:359,0
DA:360,0
DA:361,0
DA:364,0
DA:365,0
DA:366,0
DA:367,0
DA:368,0
DA:369,0
DA:370,0
DA:373,0
DA:374,0
DA:376,0
DA:377,0
DA:378,0
DA:379,0
DA:380,0
DA:382,0
DA:383,0
DA:384,0
DA:385,0
DA:387,0
DA:390,0
DA:393,0
DA:394,0
DA:395,0
DA:396,0
DA:397,0
DA:398,0
DA:399,0
DA:400,0
DA:401,0
DA:402,0
DA:404,0
DA:408,0
DA:409,0
DA:410,0
DA:412,0
DA:413,0
DA:414,0
DA:415,0
DA:416,0
DA:417,0
DA:419,0
DA:423,0
DA:426,0
DA:427,0
DA:428,0
DA:431,0
DA:432,0
DA:433,0
DA:434,0
DA:435,0
DA:436,0
DA:439,0
DA:440,0
DA:441,0
DA:442,0
DA:443,0
DA:444,0
DA:448,29
DA:449,29
DA:450,29
DA:451,29
DA:452,29
DA:453,29
DA:462,4
DA:463,4
DA:464,4
DA:466,2
DA:467,2
DA:468,2
DA:477,1
DA:478,1
DA:479,1
DA:480,1
DA:481,1
DA:482,1
DA:483,1
DA:484,1
DA:485,1
DA:486,1
DA:487,1
DA:490,1
DA:491,1
DA:492,1
DA:493,1
DA:494,1
DA:495,1
DA:496,1
DA:497,1
DA:498,1
DA:499,1
DA:500,1
DA:503,1
DA:504,1
DA:505,1
DA:506,1
DA:507,1
DA:508,1
DA:509,1
DA:510,1
DA:511,1
DA:512,1
DA:513,1
DA:516,1
DA:517,1
DA:518,1
DA:519,1
DA:520,1
DA:521,1
DA:524,0
DA:525,0
DA:526,0
DA:527,0
DA:528,0
DA:529,0
DA:530,0
DA:531,0
DA:532,0
DA:533,0
DA:534,0
DA:535,0
DA:536,0
DA:537,0
DA:538,0
DA:539,0
DA:542,1
DA:543,1
DA:544,1
DA:545,1
DA:546,1
DA:547,1
DA:548,1
DA:549,1
DA:550,1
DA:551,1
DA:552,1
DA:553,1
DA:554,1
DA:555,1
DA:556,1
DA:557,1
DA:558,1
DA:559,1
DA:560,1
DA:561,1
DA:562,1
DA:563,1
DA:564,1
DA:565,1
BRF:0
BRH:0
LF:420
LH:263
end_of_record
SF:/home/justin/Projects/chess-vector-engine/src/lichess_loader.rs
FN:103,_RINvMNtCsh06HHTBymxI_19chess_vector_engine14lichess_loaderNtB3_13LichessLoader13load_parallelpEB5_
FN:193,_RINvMNtCsh06HHTBymxI_19chess_vector_engine14lichess_loaderNtB3_13LichessLoader24load_parallel_with_movespEB5_
FN:540,_RINvNtCsh06HHTBymxI_19chess_vector_engine14lichess_loader26load_lichess_puzzles_basicpEB4_
FN:529,_RINvNtCsh06HHTBymxI_19chess_vector_engine14lichess_loader28load_lichess_puzzles_premiumpEB4_
FN:565,_RINvNtCsh06HHTBymxI_19chess_vector_engine14lichess_loader37load_lichess_puzzles_basic_with_movespEB4_
FN:554,_RINvNtCsh06HHTBymxI_19chess_vector_engine14lichess_loader39load_lichess_puzzles_premium_with_movespEB4_
FN:350,_RNCNCNvMNtCsh06HHTBymxI_19chess_vector_engine14lichess_loaderNtB6_13LichessLoader17parse_puzzle_line00B8_
FN:292,_RNCNCNvMNtCsh06HHTBymxI_19chess_vector_engine14lichess_loaderNtB6_13LichessLoader22process_batch_parallel00B8_
FN:470,_RNCNCNvMNtCsh06HHTBymxI_19chess_vector_engine14lichess_loaderNtB6_13LichessLoader27parse_puzzle_line_with_move00B8_
FN:309,_RNCNCNvMNtCsh06HHTBymxI_19chess_vector_engine14lichess_loaderNtB6_13LichessLoader33process_batch_parallel_with_moves00B8_
FN:323,_RNCNvMNtCsh06HHTBymxI_19chess_vector_engine14lichess_loaderNtB4_13LichessLoader17parse_puzzle_line0B6_
FN:289,_RNCNvMNtCsh06HHTBymxI_19chess_vector_engine14lichess_loaderNtB4_13LichessLoader22process_batch_parallel0B6_
FN:443,_RNCNvMNtCsh06HHTBymxI_19chess_vector_engine14lichess_loaderNtB4_13LichessLoader27parse_puzzle_line_with_move0B6_
FN:306,_RNCNvMNtCsh06HHTBymxI_19chess_vector_engine14lichess_loaderNtB4_13LichessLoader33process_batch_parallel_with_moves0B6_
FN:62,_RNvMNtCsh06HHTBymxI_19chess_vector_engine14lichess_loaderNtB2_13LichessLoader11new_premium
FN:91,_RNvMNtCsh06HHTBymxI_19chess_vector_engine14lichess_loaderNtB2_13LichessLoader11with_themes
FN:97,_RNvMNtCsh06HHTBymxI_19chess_vector_engine14lichess_loaderNtB2_13LichessLoader15with_batch_size
FN:317,_RNvMNtCsh06HHTBymxI_19chess_vector_engine14lichess_loaderNtB2_13LichessLoader17parse_puzzle_line
FN:84,_RNvMNtCsh06HHTBymxI_19chess_vector_engine14lichess_loaderNtB2_13LichessLoader17with_rating_range
FN:283,_RNvMNtCsh06HHTBymxI_19chess_vector_engine14lichess_loaderNtB2_13LichessLoader22process_batch_parallel
FN:406,_RNvMNtCsh06HHTBymxI_19chess_vector_engine14lichess_loaderNtB2_13LichessLoader27calculate_puzzle_evaluation
FN:437,_RNvMNtCsh06HHTBymxI_19chess_vector_engine14lichess_loaderNtB2_13LichessLoader27parse_puzzle_line_with_move
FN:300,_RNvMNtCsh06HHTBymxI_19chess_vector_engine14lichess_loaderNtB2_13LichessLoader33process_batch_parallel_with_moves
FN:51,_RNvMNtCsh06HHTBymxI_19chess_vector_engine14lichess_loaderNtB2_13LichessLoader3new
FN:523,_RNvXs_NtCsh06HHTBymxI_19chess_vector_engine14lichess_loaderNtB4_13LichessLoaderNtNtCs9sjCchOt1K7_4core7default7Default7default
FNDA:0,_RINvMNtCsh06HHTBymxI_19chess_vector_engine14lichess_loaderNtB3_13LichessLoader13load_parallelpEB5_
FNDA:0,_RINvMNtCsh06HHTBymxI_19chess_vector_engine14lichess_loaderNtB3_13LichessLoader24load_parallel_with_movespEB5_
FNDA:0,_RINvNtCsh06HHTBymxI_19chess_vector_engine14lichess_loader26load_lichess_puzzles_basicpEB4_
FNDA:0,_RINvNtCsh06HHTBymxI_19chess_vector_engine14lichess_loader28load_lichess_puzzles_premiumpEB4_
FNDA:0,_RINvNtCsh06HHTBymxI_19chess_vector_engine14lichess_loader37load_lichess_puzzles_basic_with_movespEB4_
FNDA:0,_RINvNtCsh06HHTBymxI_19chess_vector_engine14lichess_loader39load_lichess_puzzles_premium_with_movespEB4_
FNDA:0,_RNCNCNvMNtCsh06HHTBymxI_19chess_vector_engine14lichess_loaderNtB6_13LichessLoader17parse_puzzle_line00B8_
FNDA:0,_RNCNCNvMNtCsh06HHTBymxI_19chess_vector_engine14lichess_loaderNtB6_13LichessLoader22process_batch_parallel00B8_
FNDA:0,_RNCNCNvMNtCsh06HHTBymxI_19chess_vector_engine14lichess_loaderNtB6_13LichessLoader27parse_puzzle_line_with_move00B8_
FNDA:0,_RNCNCNvMNtCsh06HHTBymxI_19chess_vector_engine14lichess_loaderNtB6_13LichessLoader33process_batch_parallel_with_moves00B8_
FNDA:0,_RNCNvMNtCsh06HHTBymxI_19chess_vector_engine14lichess_loaderNtB4_13LichessLoader17parse_puzzle_line0B6_
FNDA:0,_RNCNvMNtCsh06HHTBymxI_19chess_vector_engine14lichess_loaderNtB4_13LichessLoader22process_batch_parallel0B6_
FNDA:0,_RNCNvMNtCsh06HHTBymxI_19chess_vector_engine14lichess_loaderNtB4_13LichessLoader27parse_puzzle_line_with_move0B6_
FNDA:0,_RNCNvMNtCsh06HHTBymxI_19chess_vector_engine14lichess_loaderNtB4_13LichessLoader33process_batch_parallel_with_moves0B6_
FNDA:0,_RNvMNtCsh06HHTBymxI_19chess_vector_engine14lichess_loaderNtB2_13LichessLoader11new_premium
FNDA:0,_RNvMNtCsh06HHTBymxI_19chess_vector_engine14lichess_loaderNtB2_13LichessLoader11with_themes
FNDA:0,_RNvMNtCsh06HHTBymxI_19chess_vector_engine14lichess_loaderNtB2_13LichessLoader15with_batch_size
FNDA:0,_RNvMNtCsh06HHTBymxI_19chess_vector_engine14lichess_loaderNtB2_13LichessLoader17parse_puzzle_line
FNDA:0,_RNvMNtCsh06HHTBymxI_19chess_vector_engine14lichess_loaderNtB2_13LichessLoader17with_rating_range
FNDA:0,_RNvMNtCsh06HHTBymxI_19chess_vector_engine14lichess_loaderNtB2_13LichessLoader22process_batch_parallel
FNDA:0,_RNvMNtCsh06HHTBymxI_19chess_vector_engine14lichess_loaderNtB2_13LichessLoader27calculate_puzzle_evaluation
FNDA:0,_RNvMNtCsh06HHTBymxI_19chess_vector_engine14lichess_loaderNtB2_13LichessLoader27parse_puzzle_line_with_move
FNDA:0,_RNvMNtCsh06HHTBymxI_19chess_vector_engine14lichess_loaderNtB2_13LichessLoader33process_batch_parallel_with_moves
FNDA:0,_RNvMNtCsh06HHTBymxI_19chess_vector_engine14lichess_loaderNtB2_13LichessLoader3new
FNDA:0,_RNvXs_NtCsh06HHTBymxI_19chess_vector_engine14lichess_loaderNtB4_13LichessLoaderNtNtCs9sjCchOt1K7_4core7default7Default7default
FNF:25
FNH:0
DA:51,0
DA:52,0
DA:53,0
DA:54,0
DA:55,0
DA:56,0
DA:57,0
DA:58,0
DA:59,0
DA:62,0
DA:63,0
DA:64,0
DA:65,0
DA:66,0
DA:67,0
DA:68,0
DA:69,0
DA:70,0
DA:71,0
DA:72,0
DA:73,0
DA:74,0
DA:75,0
DA:76,0
DA:77,0
DA:78,0
DA:79,0
DA:80,0
DA:81,0
DA:84,0
DA:85,0
DA:86,0
DA:87,0
DA:88,0
DA:91,0
DA:92,0
DA:93,0
DA:94,0
DA:97,0
DA:98,0
DA:99,0
DA:100,0
DA:103,0
DA:104,0
DA:105,0
DA:106,0
DA:107,0
DA:108,0
DA:109,0
DA:110,0
DA:111,0
DA:112,0
DA:113,0
DA:116,0
DA:117,0
DA:118,0
DA:120,0
DA:121,0
DA:122,0
DA:125,0
DA:126,0
DA:127,0
DA:128,0
DA:129,0
DA:130,0
DA:131,0
DA:132,0
DA:133,0
DA:134,0
DA:136,0
DA:137,0
DA:138,0
DA:139,0
DA:140,0
DA:141,0
DA:142,0
DA:145,0
DA:149,0
DA:150,0
DA:151,0
DA:152,0
DA:153,0
DA:154,0
DA:155,0
DA:156,0
DA:157,0
DA:158,0
DA:159,0
DA:160,0
DA:161,0
DA:162,0
DA:163,0
DA:164,0
DA:167,0
DA:168,0
DA:172,0
DA:173,0
DA:174,0
DA:175,0
DA:176,0
DA:178,0
DA:179,0
DA:180,0
DA:181,0
DA:182,0
DA:183,0
DA:184,0
DA:185,0
DA:186,0
DA:187,0
DA:188,0
DA:189,0
DA:190,0
DA:193,0
DA:194,0
DA:195,0
DA:196,0
DA:197,0
DA:198,0
DA:199,0
DA:200,0
DA:201,0
DA:202,0
DA:203,0
DA:206,0
DA:207,0
DA:208,0
DA:210,0
DA:211,0
DA:212,0
DA:215,0
DA:216,0
DA:217,0
DA:218,0
DA:219,0
DA:220,0
DA:221,0
DA:222,0
DA:223,0
DA:224,0
DA:226,0
DA:227,0
DA:228,0
DA:229,0
DA:230,0
DA:231,0
DA:232,0
DA:235,0
DA:239,0
DA:240,0
DA:241,0
DA:242,0
DA:243,0
DA:244,0
DA:245,0
DA:246,0
DA:247,0
DA:248,0
DA:249,0
DA:250,0
DA:251,0
DA:252,0
DA:253,0
DA:254,0
DA:257,0
DA:258,0
DA:262,0
DA:263,0
DA:264,0
DA:265,0
DA:266,0
DA:268,0
DA:269,0
DA:270,0
DA:271,0
DA:272,0
DA:273,0
DA:274,0
DA:275,0
DA:276,0
DA:277,0
DA:278,0
DA:279,0
DA:280,0
DA:283,0
DA:284,0
DA:285,0
DA:286,0
DA:287,0
DA:288,0
DA:289,0
DA:290,0
DA:291,0
DA:292,0
DA:293,0
DA:294,0
DA:295,0
DA:296,0
DA:297,0
DA:300,0
DA:301,0
DA:302,0
DA:303,0
DA:304,0
DA:305,0
DA:306,0
DA:307,0
DA:308,0
DA:309,0
DA:310,0
DA:311,0
DA:312,0
DA:313,0
DA:314,0
DA:317,0
DA:318,0
DA:319,0
DA:320,0
DA:321,0
DA:322,0
DA:323,0
DA:324,0
DA:325,0
DA:326,0
DA:327,0
DA:329,0
DA:330,0
DA:331,0
DA:334,0
DA:335,0
DA:336,0
DA:337,0
DA:338,0
DA:339,0
DA:340,0
DA:341,0
DA:342,0
DA:343,0
DA:344,0
DA:345,0
DA:346,0
DA:347,0
DA:349,0
DA:350,0
DA:351,0
DA:352,0
DA:353,0
DA:354,0
DA:357,0
DA:358,0
DA:359,0
DA:363,0
DA:364,0
DA:365,0
DA:366,0
DA:369,0
DA:370,0
DA:373,0
DA:374,0
DA:375,0
DA:376,0
DA:377,0
DA:378,0
DA:379,0
DA:380,0
DA:381,0
DA:383,0
DA:386,0
DA:390,0
DA:391,0
DA:392,0
DA:393,0
DA:394,0
DA:395,0
DA:396,0
DA:397,0
DA:398,0
DA:399,0
DA:400,0
DA:401,0
DA:403,0
DA:406,0
DA:407,0
DA:408,0
DA:409,0
DA:410,0
DA:411,0
DA:412,0
DA:413,0
DA:414,0
DA:415,0
DA:417,0
DA:419,0
DA:420,0
DA:421,0
DA:423,0
DA:425,0
DA:426,0
DA:427,0
DA:429,0
DA:431,0
DA:433,0
DA:434,0
DA:437,0
DA:438,0
DA:439,0
DA:440,0
DA:441,0
DA:442,0
DA:443,0
DA:444,0
DA:445,0
DA:446,0
DA:447,0
DA:449,0
DA:450,0
DA:451,0
DA:454,0
DA:455,0
DA:456,0
DA:457,0
DA:458,0
DA:459,0
DA:460,0
DA:461,0
DA:462,0
DA:463,0
DA:464,0
DA:465,0
DA:466,0
DA:467,0
DA:469,0
DA:470,0
DA:471,0
DA:472,0
DA:473,0
DA:474,0
DA:477,0
DA:478,0
DA:479,0
DA:483,0
DA:484,0
DA:485,0
DA:486,0
DA:489,0
DA:490,0
DA:493,0
DA:494,0
DA:495,0
DA:496,0
DA:497,0
DA:498,0
DA:499,0
DA:500,0
DA:501,0
DA:504,0
DA:507,0
DA:511,0
DA:512,0
DA:513,0
DA:514,0
DA:515,0
DA:516,0
DA:517,0
DA:519,0
DA:523,0
DA:524,0
DA:525,0
DA:529,0
DA:530,0
DA:531,0
DA:532,0
DA:533,0
DA:534,0
DA:535,0
DA:536,0
DA:537,0
DA:540,0
DA:541,0
DA:542,0
DA:543,0
DA:544,0
DA:545,0
DA:546,0
DA:548,0
DA:549,0
DA:550,0
DA:551,0
DA:554,0
DA:555,0
DA:556,0
DA:557,0
DA:558,0
DA:559,0
DA:560,0
DA:561,0
DA:562,0
DA:565,0
DA:566,0
DA:567,0
DA:568,0
DA:569,0
DA:570,0
DA:571,0
DA:573,0
DA:574,0
DA:575,0
DA:576,0
BRF:0
BRH:0
LF:420
LH:0
end_of_record
SF:/home/justin/Projects/chess-vector-engine/src/lsh.rs
FN:284,_RNCNvMNtCsh06HHTBymxI_19chess_vector_engine3lshNtB4_3LSH16save_to_database0B6_
FN:307,_RNCNvMNtCsh06HHTBymxI_19chess_vector_engine3lshNtB4_3LSH16save_to_databases_0B6_
FN:273,_RNvMNtCsh06HHTBymxI_19chess_vector_engine3lshNtB2_3LSH16save_to_database
FN:320,_RNvMNtCsh06HHTBymxI_19chess_vector_engine3lshNtB2_3LSH18load_from_database
FN:374,_RNvMNtCsh06HHTBymxI_19chess_vector_engine3lshNtB2_3LSH20from_database_or_new
FN:229,_RNvMNtCsh06HHTBymxI_19chess_vector_engine3lshNtB2_3LSH5stats
FN:560,_RNvNtNtCsh06HHTBymxI_19chess_vector_engine3lsh5testss_17test_lsh_creation
FN:589,_RNvNtNtCsh06HHTBymxI_19chess_vector_engine3lsh5testss_22test_cosine_similarity
FN:568,_RNvNtNtCsh06HHTBymxI_19chess_vector_engine3lsh5testss_22test_lsh_add_and_query
FN:77,_RNvMNtCsh06HHTBymxI_19chess_vector_engine3lshNtB2_3LSH10add_vector
FN:218,_RNvMNtCsh06HHTBymxI_19chess_vector_engine3lshNtB2_3LSH11hash_vector
FN:107,_RNvMNtCsh06HHTBymxI_19chess_vector_engine3lshNtB2_3LSH18resize_hash_tables
FN:38,_RNvMNtCsh06HHTBymxI_19chess_vector_engine3lshNtB2_3LSH18with_expected_size
FN:33,_RNvMNtCsh06HHTBymxI_19chess_vector_engine3lshNtB2_3LSH3new
FN:117,_RNvMNtCsh06HHTBymxI_19chess_vector_engine3lshNtB2_3LSH5query
FN:483,_RNvNtCsh06HHTBymxI_19chess_vector_engine3lsh15sse_dot_product
FN:456,_RNvNtCsh06HHTBymxI_19chess_vector_engine3lsh16avx2_dot_product
FN:433,_RNvNtCsh06HHTBymxI_19chess_vector_engine3lsh16simd_dot_productB3_
FN:416,_RNvNtCsh06HHTBymxI_19chess_vector_engine3lsh17cosine_similarity
FN:536,_RNvNtCsh06HHTBymxI_19chess_vector_engine3lsh18scalar_dot_productB3_
FN:101,_RNCNvMNtCsh06HHTBymxI_19chess_vector_engine3lshNtB4_3LSH10add_vector0B6_
FN:225,_RNCNvMNtCsh06HHTBymxI_19chess_vector_engine3lshNtB4_3LSH11hash_vector0B6_
FN:128,_RNCNvMNtCsh06HHTBymxI_19chess_vector_engine3lshNtB4_3LSH5query0B6_
FN:204,_RNCNvMNtCsh06HHTBymxI_19chess_vector_engine3lshNtB4_3LSH5querys0_0B6_
FN:208,_RNCNvMNtCsh06HHTBymxI_19chess_vector_engine3lshNtB4_3LSH5querys1_0B6_
FN:185,_RNCNvMNtCsh06HHTBymxI_19chess_vector_engine3lshNtB4_3LSH5querys_0B6_
FNDA:0,_RNCNvMNtCsh06HHTBymxI_19chess_vector_engine3lshNtB4_3LSH16save_to_database0B6_
FNDA:0,_RNCNvMNtCsh06HHTBymxI_19chess_vector_engine3lshNtB4_3LSH16save_to_databases_0B6_
FNDA:0,_RNvMNtCsh06HHTBymxI_19chess_vector_engine3lshNtB2_3LSH16save_to_database
FNDA:0,_RNvMNtCsh06HHTBymxI_19chess_vector_engine3lshNtB2_3LSH18load_from_database
FNDA:0,_RNvMNtCsh06HHTBymxI_19chess_vector_engine3lshNtB2_3LSH20from_database_or_new
FNDA:0,_RNvMNtCsh06HHTBymxI_19chess_vector_engine3lshNtB2_3LSH5stats
FNDA:1,_RNvNtNtCsh06HHTBymxI_19chess_vector_engine3lsh5testss_17test_lsh_creation
FNDA:1,_RNvNtNtCsh06HHTBymxI_19chess_vector_engine3lsh5testss_22test_cosine_similarity
FNDA:1,_RNvNtNtCsh06HHTBymxI_19chess_vector_engine3lsh5testss_22test_lsh_add_and_query
FNDA:76,_RNvMNtCsh06HHTBymxI_19chess_vector_engine3lshNtB2_3LSH10add_vector
FNDA:390,_RNvMNtCsh06HHTBymxI_19chess_vector_engine3lshNtB2_3LSH11hash_vector
FNDA:1,_RNvMNtCsh06HHTBymxI_19chess_vector_engine3lshNtB2_3LSH18resize_hash_tables
FNDA:11,_RNvMNtCsh06HHTBymxI_19chess_vector_engine3lshNtB2_3LSH18with_expected_size
FNDA:11,_RNvMNtCsh06HHTBymxI_19chess_vector_engine3lshNtB2_3LSH3new
FNDA:6,_RNvMNtCsh06HHTBymxI_19chess_vector_engine3lshNtB2_3LSH5query
FNDA:0,_RNvNtCsh06HHTBymxI_19chess_vector_engine3lsh15sse_dot_product
FNDA:381,_RNvNtCsh06HHTBymxI_19chess_vector_engine3lsh16avx2_dot_product
FNDA:381,_RNvNtCsh06HHTBymxI_19chess_vector_engine3lsh16simd_dot_productB3_
FNDA:127,_RNvNtCsh06HHTBymxI_19chess_vector_engine3lsh17cosine_similarity
FNDA:0,_RNvNtCsh06HHTBymxI_19chess_vector_engine3lsh18scalar_dot_productB3_
FNDA:21,_RNCNvMNtCsh06HHTBymxI_19chess_vector_engine3lshNtB4_3LSH10add_vector0B6_
FNDA:4416,_RNCNvMNtCsh06HHTBymxI_19chess_vector_engine3lshNtB4_3LSH11hash_vector0B6_
FNDA:8,_RNCNvMNtCsh06HHTBymxI_19chess_vector_engine3lshNtB4_3LSH5query0B6_
FNDA:0,_RNCNvMNtCsh06HHTBymxI_19chess_vector_engine3lshNtB4_3LSH5querys0_0B6_
FNDA:119,_RNCNvMNtCsh06HHTBymxI_19chess_vector_engine3lshNtB4_3LSH5querys1_0B6_
FNDA:0,_RNCNvMNtCsh06HHTBymxI_19chess_vector_engine3lshNtB4_3LSH5querys_0B6_
FNF:26
FNH:16
DA:33,11
DA:34,11
DA:35,11
DA:38,11
DA:39,11
DA:40,11
DA:41,11
DA:42,11
DA:43,11
DA:44,11
DA:45,11
DA:46,11
DA:47,11
DA:48,11
DA:49,56
DA:50,688
DA:51,487488
DA:52,487488
DA:53,487488
DA:55,56
DA:60,11
DA:61,11
DA:62,11
DA:63,11
DA:64,11
DA:65,11
DA:66,11
DA:67,11
DA:68,11
DA:69,11
DA:70,11
DA:71,11
DA:72,11
DA:73,11
DA:74,11
DA:77,76
DA:78,76
DA:79,76
DA:80,76
DA:81,76
DA:82,76
DA:83,76
DA:84,1
DA:85,75
DA:88,76
DA:89,376
DA:90,376
DA:91,376
DA:94,76
DA:95,76
DA:98,376
DA:99,376
DA:100,376
DA:101,376
DA:102,376
DA:103,376
DA:104,76
DA:107,1
DA:108,1
DA:110,5
DA:111,4
DA:112,4
DA:113,4
DA:114,1
DA:117,6
DA:118,6
DA:119,6
DA:120,6
DA:121,6
DA:122,6
DA:123,6
DA:124,6
DA:126,1
DA:127,1
DA:128,8
DA:129,8
DA:130,8
DA:131,8
DA:133,0
DA:135,8
DA:136,1
DA:139,1
DA:140,20
DA:141,20
DA:142,20
DA:143,1
DA:144,19
DA:146,1
DA:147,1
DA:148,0
DA:152,10
DA:153,10
DA:154,4
DA:155,6
DA:156,6
DA:157,6
DA:158,6
DA:159,107
DA:160,106
DA:161,106
DA:162,5
DA:163,101
DA:165,0
DA:170,6
DA:172,0
DA:173,0
DA:174,0
DA:175,0
DA:176,0
DA:177,0
DA:179,6
DA:182,6
DA:183,0
DA:184,0
DA:185,0
DA:186,0
DA:187,0
DA:188,0
DA:189,0
DA:190,0
DA:193,6
DA:194,131
DA:195,125
DA:196,125
DA:197,125
DA:198,125
DA:199,6
DA:203,6
DA:204,0
DA:205,0
DA:206,0
DA:207,6
DA:208,119
DA:209,119
DA:210,119
DA:211,6
DA:212,6
DA:213,6
DA:214,6
DA:215,6
DA:218,390
DA:219,390
DA:220,390
DA:221,390
DA:222,390
DA:223,390
DA:224,390
DA:225,4416
DA:226,390
DA:229,0
DA:230,0
DA:231,0
DA:232,0
DA:234,0
DA:236,0
DA:237,0
DA:238,0
DA:239,0
DA:240,0
DA:242,0
DA:243,0
DA:244,0
DA:247,0
DA:248,0
DA:249,0
DA:251,0
DA:254,0
DA:255,0
DA:257,0
DA:260,0
DA:261,0
DA:262,0
DA:263,0
DA:264,0
DA:265,0
DA:266,0
DA:267,0
DA:268,0
DA:269,0
DA:270,0
DA:273,0
DA:274,0
DA:275,0
DA:276,0
DA:280,0
DA:281,0
DA:282,0
DA:283,0
DA:284,0
DA:285,0
DA:286,0
DA:287,0
DA:290,0
DA:291,0
DA:292,0
DA:293,0
DA:294,0
DA:295,0
DA:296,0
DA:297,0
DA:300,0
DA:303,0
DA:304,0
DA:305,0
DA:306,0
DA:307,0
DA:308,0
DA:310,0
DA:311,0
DA:316,0
DA:317,0
DA:320,0
DA:321,0
DA:322,0
DA:323,0
DA:324,0
DA:325,0
DA:326,0
DA:330,0
DA:331,0
DA:333,0
DA:334,0
DA:335,0
DA:336,0
DA:337,0
DA:338,0
DA:340,0
DA:341,0
DA:343,0
DA:344,0
DA:345,0
DA:346,0
DA:350,0
DA:351,0
DA:355,0
DA:356,0
DA:357,0
DA:358,0
DA:359,0
DA:360,0
DA:361,0
DA:362,0
DA:363,0
DA:366,0
DA:367,0
DA:368,0
DA:370,0
DA:371,0
DA:374,0
DA:375,0
DA:376,0
DA:377,0
DA:378,0
DA:379,0
DA:380,0
DA:381,0
DA:382,0
DA:383,0
DA:384,0
DA:385,0
DA:386,0
DA:387,0
DA:390,0
DA:391,0
DA:392,0
DA:393,0
DA:394,0
DA:395,0
DA:396,0
DA:399,0
DA:416,127
DA:417,127
DA:418,127
DA:419,127
DA:420,127
DA:421,127
DA:422,127
DA:423,127
DA:424,127
DA:425,0
DA:427,127
DA:429,127
DA:433,381
DA:434,381
DA:435,381
DA:436,381
DA:437,381
DA:438,0
DA:439,0
DA:440,0
DA:441,0
DA:442,0
DA:443,0
DA:444,0
DA:445,0
DA:446,0
DA:447,0
DA:448,0
DA:449,0
DA:450,0
DA:451,0
DA:452,381
DA:456,381
DA:457,381
DA:458,381
DA:459,381
DA:461,39741
DA:462,39360
DA:463,39360
DA:464,39360
DA:465,39360
DA:466,39360
DA:467,39360
DA:469,381
DA:470,381
DA:471,381
DA:473,459
DA:474,78
DA:475,78
DA:476,78
DA:478,381
DA:479,381
DA:483,0
DA:484,0
DA:485,0
DA:486,0
DA:488,0
DA:489,0
DA:490,0
DA:491,0
DA:492,0
DA:493,0
DA:494,0
DA:496,0
DA:497,0
DA:498,0
DA:500,0
DA:501,0
DA:502,0
DA:503,0
DA:505,0
DA:506,0
DA:536,0
DA:537,0
DA:538,0
DA:539,0
DA:541,0
DA:542,0
DA:543,0
DA:544,0
DA:546,0
DA:547,0
DA:548,0
DA:549,0
DA:551,0
DA:552,0
DA:560,1
DA:561,1
DA:562,1
DA:563,1
DA:564,1
DA:565,1
DA:568,1
DA:569,1
DA:570,1
DA:571,1
DA:572,1
DA:573,1
DA:574,1
DA:575,1
DA:576,1
DA:577,1
DA:578,1
DA:579,1
DA:580,1
DA:581,1
DA:582,1
DA:585,1
DA:586,1
DA:589,1
DA:590,1
DA:591,1
DA:592,1
DA:593,1
DA:594,1
DA:595,1
DA:596,1
BRF:0
BRH:0
LF:399
LH:203
end_of_record
SF:/home/justin/Projects/chess-vector-engine/src/manifold_learner.rs
FN:34,_RNvMNtCsh06HHTBymxI_19chess_vector_engine16manifold_learnerNtB2_7Encoder3new
FN:61,_RNvMs0_NtCsh06HHTBymxI_19chess_vector_engine16manifold_learnerNtB5_7Decoder3new
FN:186,_RNvMs2_NtCsh06HHTBymxI_19chess_vector_engine16manifold_learnerNtB5_15ManifoldLearner10is_trained
FN:191,_RNvMs2_NtCsh06HHTBymxI_19chess_vector_engine16manifold_learnerNtB5_15ManifoldLearner10output_dim
FN:104,_RNvMs2_NtCsh06HHTBymxI_19chess_vector_engine16manifold_learnerNtB5_15ManifoldLearner12init_network
FN:221,_RNvMs2_NtCsh06HHTBymxI_19chess_vector_engine16manifold_learnerNtB5_15ManifoldLearner14train_parallel
FN:181,_RNvMs2_NtCsh06HHTBymxI_19chess_vector_engine16manifold_learnerNtB5_15ManifoldLearner17compression_ratio
FN:276,_RNvMs2_NtCsh06HHTBymxI_19chess_vector_engine16manifold_learnerNtB5_15ManifoldLearner22process_batch_parallel
FN:309,_RNvMs2_NtCsh06HHTBymxI_19chess_vector_engine16manifold_learnerNtB5_15ManifoldLearner22train_memory_efficient
FN:88,_RNvMs2_NtCsh06HHTBymxI_19chess_vector_engine16manifold_learnerNtB5_15ManifoldLearner3new
FN:129,_RNvMs2_NtCsh06HHTBymxI_19chess_vector_engine16manifold_learnerNtB5_15ManifoldLearner5train
FN:160,_RNvMs2_NtCsh06HHTBymxI_19chess_vector_engine16manifold_learnerNtB5_15ManifoldLearner6decode
FN:141,_RNvMs2_NtCsh06HHTBymxI_19chess_vector_engine16manifold_learnerNtB5_15ManifoldLearner6encode
FN:80,_RNvXs1_NtCsh06HHTBymxI_19chess_vector_engine16manifold_learnerNtB5_7DecoderNtCslAqj6xCR5nr_11candle_core6Module7forward
FN:53,_RNvXs_NtCsh06HHTBymxI_19chess_vector_engine16manifold_learnerNtB4_7EncoderNtCslAqj6xCR5nr_11candle_core6Module7forward
FN:212,_RNCNvMs2_NtCsh06HHTBymxI_19chess_vector_engine16manifold_learnerNtB7_15ManifoldLearner12decode_batch0B9_
FN:216,_RNCNvMs2_NtCsh06HHTBymxI_19chess_vector_engine16manifold_learnerNtB7_15ManifoldLearner12decode_batchs_0B9_
FN:199,_RNCNvMs2_NtCsh06HHTBymxI_19chess_vector_engine16manifold_learnerNtB7_15ManifoldLearner12encode_batch0B9_
FN:202,_RNCNvMs2_NtCsh06HHTBymxI_19chess_vector_engine16manifold_learnerNtB7_15ManifoldLearner12encode_batchs_0B9_
FN:545,_RNCNvMs2_NtCsh06HHTBymxI_19chess_vector_engine16manifold_learnerNtB7_15ManifoldLearner19deserialize_var_map0B9_
FN:207,_RNvMs2_NtCsh06HHTBymxI_19chess_vector_engine16manifold_learnerNtB5_15ManifoldLearner12decode_batch
FN:196,_RNvMs2_NtCsh06HHTBymxI_19chess_vector_engine16manifold_learnerNtB5_15ManifoldLearner12encode_batch
FN:394,_RNvMs2_NtCsh06HHTBymxI_19chess_vector_engine16manifold_learnerNtB5_15ManifoldLearner16save_to_database
FN:482,_RNvMs2_NtCsh06HHTBymxI_19chess_vector_engine16manifold_learnerNtB5_15ManifoldLearner17serialize_var_map
FN:429,_RNvMs2_NtCsh06HHTBymxI_19chess_vector_engine16manifold_learnerNtB5_15ManifoldLearner18load_from_database
FN:530,_RNvMs2_NtCsh06HHTBymxI_19chess_vector_engine16manifold_learnerNtB5_15ManifoldLearner19deserialize_var_map
FN:464,_RNvMs2_NtCsh06HHTBymxI_19chess_vector_engine16manifold_learnerNtB5_15ManifoldLearner20from_database_or_new
FN:554,_RNvMs2_NtCsh06HHTBymxI_19chess_vector_engine16manifold_learnerNtB5_15ManifoldLearner25load_weights_into_network
FN:109,_RNCNvMs2_NtCsh06HHTBymxI_19chess_vector_engine16manifold_learnerNtB7_15ManifoldLearner12init_network0B9_
FN:119,_RNCNvMs2_NtCsh06HHTBymxI_19chess_vector_engine16manifold_learnerNtB7_15ManifoldLearner12init_networks0_0B9_
FN:111,_RNCNvMs2_NtCsh06HHTBymxI_19chess_vector_engine16manifold_learnerNtB7_15ManifoldLearner12init_networks_0B9_
FN:253,_RNCNvMs2_NtCsh06HHTBymxI_19chess_vector_engine16manifold_learnerNtB7_15ManifoldLearner14train_parallel0B9_
FN:299,_RNCNvMs2_NtCsh06HHTBymxI_19chess_vector_engine16manifold_learnerNtB7_15ManifoldLearner22process_batch_parallel0B9_
FN:350,_RNCNvMs2_NtCsh06HHTBymxI_19chess_vector_engine16manifold_learnerNtB7_15ManifoldLearner22train_memory_efficient0B9_
FN:358,_RNCNvMs2_NtCsh06HHTBymxI_19chess_vector_engine16manifold_learnerNtB7_15ManifoldLearner22train_memory_efficients0_0B9_
FN:362,_RNCNvMs2_NtCsh06HHTBymxI_19chess_vector_engine16manifold_learnerNtB7_15ManifoldLearner22train_memory_efficients1_0B9_
FN:363,_RNCNvMs2_NtCsh06HHTBymxI_19chess_vector_engine16manifold_learnerNtB7_15ManifoldLearner22train_memory_efficients2_0B9_
FN:364,_RNCNvMs2_NtCsh06HHTBymxI_19chess_vector_engine16manifold_learnerNtB7_15ManifoldLearner22train_memory_efficients3_0B9_
FN:369,_RNCNvMs2_NtCsh06HHTBymxI_19chess_vector_engine16manifold_learnerNtB7_15ManifoldLearner22train_memory_efficients4_0B9_
FN:374,_RNCNvMs2_NtCsh06HHTBymxI_19chess_vector_engine16manifold_learnerNtB7_15ManifoldLearner22train_memory_efficients5_0B9_
FN:379,_RNCNvMs2_NtCsh06HHTBymxI_19chess_vector_engine16manifold_learnerNtB7_15ManifoldLearner22train_memory_efficients6_0B9_
FN:355,_RNCNvMs2_NtCsh06HHTBymxI_19chess_vector_engine16manifold_learnerNtB7_15ManifoldLearner22train_memory_efficients_0B9_
FN:659,_RNvNtNtCsh06HHTBymxI_19chess_vector_engine16manifold_learner5testss_19test_training_basic
FN:644,_RNvNtNtCsh06HHTBymxI_19chess_vector_engine16manifold_learner5testss_24test_encode_decode_basic
FN:637,_RNvNtNtCsh06HHTBymxI_19chess_vector_engine16manifold_learner5testss_27test_network_initialization
FN:628,_RNvNtNtCsh06HHTBymxI_19chess_vector_engine16manifold_learner5testss_30test_manifold_learner_creation
FN:663,_RNCNvNtNtCsh06HHTBymxI_19chess_vector_engine16manifold_learner5testss_19test_training_basic0B7_
FNDA:5,_RNvMNtCsh06HHTBymxI_19chess_vector_engine16manifold_learnerNtB2_7Encoder3new
FNDA:5,_RNvMs0_NtCsh06HHTBymxI_19chess_vector_engine16manifold_learnerNtB5_7Decoder3new
FNDA:3,_RNvMs2_NtCsh06HHTBymxI_19chess_vector_engine16manifold_learnerNtB5_15ManifoldLearner10is_trained
FNDA:4,_RNvMs2_NtCsh06HHTBymxI_19chess_vector_engine16manifold_learnerNtB5_15ManifoldLearner10output_dim
FNDA:5,_RNvMs2_NtCsh06HHTBymxI_19chess_vector_engine16manifold_learnerNtB5_15ManifoldLearner12init_network
FNDA:0,_RNvMs2_NtCsh06HHTBymxI_19chess_vector_engine16manifold_learnerNtB5_15ManifoldLearner14train_parallel
FNDA:4,_RNvMs2_NtCsh06HHTBymxI_19chess_vector_engine16manifold_learnerNtB5_15ManifoldLearner17compression_ratio
FNDA:0,_RNvMs2_NtCsh06HHTBymxI_19chess_vector_engine16manifold_learnerNtB5_15ManifoldLearner22process_batch_parallel
FNDA:3,_RNvMs2_NtCsh06HHTBymxI_19chess_vector_engine16manifold_learnerNtB5_15ManifoldLearner22train_memory_efficient
FNDA:6,_RNvMs2_NtCsh06HHTBymxI_19chess_vector_engine16manifold_learnerNtB5_15ManifoldLearner3new
FNDA:3,_RNvMs2_NtCsh06HHTBymxI_19chess_vector_engine16manifold_learnerNtB5_15ManifoldLearner5train
FNDA:1,_RNvMs2_NtCsh06HHTBymxI_19chess_vector_engine16manifold_learnerNtB5_15ManifoldLearner6decode
FNDA:53,_RNvMs2_NtCsh06HHTBymxI_19chess_vector_engine16manifold_learnerNtB5_15ManifoldLearner6encode
FNDA:14,_RNvXs1_NtCsh06HHTBymxI_19chess_vector_engine16manifold_learnerNtB5_7DecoderNtCslAqj6xCR5nr_11candle_core6Module7forward
FNDA:66,_RNvXs_NtCsh06HHTBymxI_19chess_vector_engine16manifold_learnerNtB4_7EncoderNtCslAqj6xCR5nr_11candle_core6Module7forward
FNDA:0,_RNCNvMs2_NtCsh06HHTBymxI_19chess_vector_engine16manifold_learnerNtB7_15ManifoldLearner12decode_batch0B9_
FNDA:0,_RNCNvMs2_NtCsh06HHTBymxI_19chess_vector_engine16manifold_learnerNtB7_15ManifoldLearner12decode_batchs_0B9_
FNDA:0,_RNCNvMs2_NtCsh06HHTBymxI_19chess_vector_engine16manifold_learnerNtB7_15ManifoldLearner12encode_batch0B9_
FNDA:0,_RNCNvMs2_NtCsh06HHTBymxI_19chess_vector_engine16manifold_learnerNtB7_15ManifoldLearner12encode_batchs_0B9_
FNDA:0,_RNCNvMs2_NtCsh06HHTBymxI_19chess_vector_engine16manifold_learnerNtB7_15ManifoldLearner19deserialize_var_map0B9_
FNDA:0,_RNvMs2_NtCsh06HHTBymxI_19chess_vector_engine16manifold_learnerNtB5_15ManifoldLearner12decode_batch
FNDA:0,_RNvMs2_NtCsh06HHTBymxI_19chess_vector_engine16manifold_learnerNtB5_15ManifoldLearner12encode_batch
FNDA:0,_RNvMs2_NtCsh06HHTBymxI_19chess_vector_engine16manifold_learnerNtB5_15ManifoldLearner16save_to_database
FNDA:0,_RNvMs2_NtCsh06HHTBymxI_19chess_vector_engine16manifold_learnerNtB5_15ManifoldLearner17serialize_var_map
FNDA:0,_RNvMs2_NtCsh06HHTBymxI_19chess_vector_engine16manifold_learnerNtB5_15ManifoldLearner18load_from_database
FNDA:0,_RNvMs2_NtCsh06HHTBymxI_19chess_vector_engine16manifold_learnerNtB5_15ManifoldLearner19deserialize_var_map
FNDA:0,_RNvMs2_NtCsh06HHTBymxI_19chess_vector_engine16manifold_learnerNtB5_15ManifoldLearner20from_database_or_new
FNDA:0,_RNvMs2_NtCsh06HHTBymxI_19chess_vector_engine16manifold_learnerNtB5_15ManifoldLearner25load_weights_into_network
FNDA:0,_RNCNvMs2_NtCsh06HHTBymxI_19chess_vector_engine16manifold_learnerNtB7_15ManifoldLearner12init_network0B9_
FNDA:0,_RNCNvMs2_NtCsh06HHTBymxI_19chess_vector_engine16manifold_learnerNtB7_15ManifoldLearner12init_networks0_0B9_
FNDA:0,_RNCNvMs2_NtCsh06HHTBymxI_19chess_vector_engine16manifold_learnerNtB7_15ManifoldLearner12init_networks_0B9_
FNDA:0,_RNCNvMs2_NtCsh06HHTBymxI_19chess_vector_engine16manifold_learnerNtB7_15ManifoldLearner14train_parallel0B9_
FNDA:0,_RNCNvMs2_NtCsh06HHTBymxI_19chess_vector_engine16manifold_learnerNtB7_15ManifoldLearner22process_batch_parallel0B9_
FNDA:0,_RNCNvMs2_NtCsh06HHTBymxI_19chess_vector_engine16manifold_learnerNtB7_15ManifoldLearner22train_memory_efficient0B9_
FNDA:0,_RNCNvMs2_NtCsh06HHTBymxI_19chess_vector_engine16manifold_learnerNtB7_15ManifoldLearner22train_memory_efficients0_0B9_
FNDA:13,_RNCNvMs2_NtCsh06HHTBymxI_19chess_vector_engine16manifold_learnerNtB7_15ManifoldLearner22train_memory_efficients1_0B9_
FNDA:13,_RNCNvMs2_NtCsh06HHTBymxI_19chess_vector_engine16manifold_learnerNtB7_15ManifoldLearner22train_memory_efficients2_0B9_
FNDA:0,_RNCNvMs2_NtCsh06HHTBymxI_19chess_vector_engine16manifold_learnerNtB7_15ManifoldLearner22train_memory_efficients3_0B9_
FNDA:0,_RNCNvMs2_NtCsh06HHTBymxI_19chess_vector_engine16manifold_learnerNtB7_15ManifoldLearner22train_memory_efficients4_0B9_
FNDA:0,_RNCNvMs2_NtCsh06HHTBymxI_19chess_vector_engine16manifold_learnerNtB7_15ManifoldLearner22train_memory_efficients5_0B9_
FNDA:0,_RNCNvMs2_NtCsh06HHTBymxI_19chess_vector_engine16manifold_learnerNtB7_15ManifoldLearner22train_memory_efficients6_0B9_
FNDA:0,_RNCNvMs2_NtCsh06HHTBymxI_19chess_vector_engine16manifold_learnerNtB7_15ManifoldLearner22train_memory_efficients_0B9_
FNDA:1,_RNvNtNtCsh06HHTBymxI_19chess_vector_engine16manifold_learner5testss_19test_training_basic
FNDA:1,_RNvNtNtCsh06HHTBymxI_19chess_vector_engine16manifold_learner5testss_24test_encode_decode_basic
FNDA:1,_RNvNtNtCsh06HHTBymxI_19chess_vector_engine16manifold_learner5testss_27test_network_initialization
FNDA:1,_RNvNtNtCsh06HHTBymxI_19chess_vector_engine16manifold_learner5testss_30test_manifold_learner_creation
FNDA:200,_RNCNvNtNtCsh06HHTBymxI_19chess_vector_engine16manifold_learner5testss_19test_training_basic0B7_
FNF:47
FNH:20
DA:34,5
DA:35,5
DA:36,5
DA:37,5
DA:38,5
DA:39,5
DA:40,5
DA:41,5
DA:42,5
DA:44,5
DA:45,5
DA:46,5
DA:47,5
DA:48,5
DA:49,5
DA:53,66
DA:54,66
DA:55,66
DA:56,66
DA:57,66
DA:61,5
DA:62,5
DA:63,5
DA:64,5
DA:65,5
DA:66,5
DA:67,5
DA:68,5
DA:69,5
DA:71,5
DA:72,5
DA:73,5
DA:74,5
DA:75,5
DA:76,5
DA:80,14
DA:81,14
DA:82,14
DA:83,14
DA:84,14
DA:88,6
DA:89,6
DA:90,6
DA:91,6
DA:92,6
DA:93,6
DA:94,6
DA:95,6
DA:96,6
DA:97,6
DA:98,6
DA:99,6
DA:100,6
DA:101,6
DA:104,5
DA:105,5
DA:106,5
DA:108,5
DA:109,5
DA:110,5
DA:111,5
DA:114,5
DA:115,5
DA:116,5
DA:117,5
DA:118,5
DA:119,5
DA:121,5
DA:122,5
DA:123,5
DA:124,5
DA:125,5
DA:126,5
DA:129,3
DA:130,3
DA:131,3
DA:132,3
DA:133,3
DA:134,0
DA:136,3
DA:138,3
DA:141,53
DA:142,53
DA:144,53
DA:145,53
DA:147,53
DA:148,53
DA:149,53
DA:150,0
DA:151,0
DA:152,0
DA:153,0
DA:156,0
DA:157,53
DA:160,1
DA:161,1
DA:163,1
DA:164,1
DA:165,1
DA:166,1
DA:167,1
DA:168,1
DA:169,1
DA:170,1
DA:171,0
DA:172,0
DA:173,0
DA:174,0
DA:177,0
DA:178,1
DA:181,4
DA:182,4
DA:183,4
DA:186,3
DA:187,3
DA:188,3
DA:191,4
DA:192,4
DA:193,4
DA:196,0
DA:197,0
DA:199,0
DA:202,0
DA:204,0
DA:207,0
DA:208,0
DA:210,0
DA:211,0
DA:212,0
DA:213,0
DA:216,0
DA:218,0
DA:221,0
DA:222,0
DA:223,0
DA:224,0
DA:225,0
DA:226,0
DA:227,0
DA:228,0
DA:229,0
DA:230,0
DA:232,0
DA:233,0
DA:234,0
DA:235,0
DA:236,0
DA:237,0
DA:238,0
DA:241,0
DA:243,0
DA:244,0
DA:245,0
DA:246,0
DA:247,0
DA:249,0
DA:251,0
DA:252,0
DA:253,0
DA:254,0
DA:257,0
DA:258,0
DA:259,0
DA:260,0
DA:265,0
DA:266,0
DA:267,0
DA:268,0
DA:271,0
DA:272,0
DA:273,0
DA:276,0
DA:277,0
DA:278,0
DA:279,0
DA:280,0
DA:281,0
DA:282,0
DA:283,0
DA:284,0
DA:285,0
DA:286,0
DA:287,0
DA:288,0
DA:289,0
DA:290,0
DA:291,0
DA:292,0
DA:293,0
DA:294,0
DA:295,0
DA:298,0
DA:299,0
DA:303,0
DA:304,0
DA:305,0
DA:306,0
DA:309,3
DA:310,3
DA:311,3
DA:312,3
DA:313,3
DA:314,3
DA:315,3
DA:316,3
DA:317,1
DA:318,2
DA:320,3
DA:321,3
DA:322,3
DA:323,3
DA:324,3
DA:325,3
DA:326,3
DA:329,13
DA:330,13
DA:333,13
DA:334,13
DA:335,13
DA:336,13
DA:337,13
DA:338,13
DA:339,13
DA:340,13
DA:341,13
DA:342,13
DA:343,13
DA:345,13
DA:346,13
DA:349,13
DA:350,13
DA:353,13
DA:354,13
DA:355,13
DA:356,13
DA:357,13
DA:358,13
DA:361,13
DA:362,13
DA:363,13
DA:364,13
DA:367,13
DA:368,13
DA:369,13
DA:372,13
DA:373,13
DA:374,13
DA:377,13
DA:378,13
DA:379,13
DA:380,0
DA:383,13
DA:384,3
DA:385,3
DA:386,10
DA:389,3
DA:390,3
DA:391,3
DA:394,0
DA:395,0
DA:396,0
DA:397,0
DA:398,0
DA:399,0
DA:400,0
DA:403,0
DA:406,0
DA:407,0
DA:408,0
DA:409,0
DA:410,0
DA:411,0
DA:412,0
DA:414,0
DA:415,0
DA:416,0
DA:417,0
DA:418,0
DA:419,0
DA:421,0
DA:422,0
DA:423,0
DA:424,0
DA:425,0
DA:426,0
DA:429,0
DA:430,0
DA:431,0
DA:432,0
DA:433,0
DA:434,0
DA:435,0
DA:436,0
DA:437,0
DA:440,0
DA:443,0
DA:444,0
DA:445,0
DA:446,0
DA:447,0
DA:448,0
DA:449,0
DA:450,0
DA:451,0
DA:452,0
DA:453,0
DA:455,0
DA:457,0
DA:459,0
DA:461,0
DA:464,0
DA:465,0
DA:466,0
DA:467,0
DA:468,0
DA:469,0
DA:470,0
DA:471,0
DA:472,0
DA:475,0
DA:476,0
DA:479,0
DA:482,0
DA:483,0
DA:484,0
DA:485,0
DA:486,0
DA:487,0
DA:488,0
DA:489,0
DA:490,0
DA:491,0
DA:492,0
DA:493,0
DA:494,0
DA:495,0
DA:496,0
DA:497,0
DA:498,0
DA:499,0
DA:500,0
DA:501,0
DA:502,0
DA:503,0
DA:504,0
DA:506,0
DA:507,0
DA:508,0
DA:509,0
DA:511,0
DA:515,0
DA:516,0
DA:519,0
DA:521,0
DA:525,0
DA:526,0
DA:527,0
DA:530,0
DA:532,0
DA:535,0
DA:537,0
DA:539,0
DA:540,0
DA:544,0
DA:545,0
DA:548,0
DA:550,0
DA:551,0
DA:554,0
DA:555,0
DA:556,0
DA:557,0
DA:558,0
DA:559,0
DA:560,0
DA:561,0
DA:562,0
DA:563,0
DA:564,0
DA:565,0
DA:566,0
DA:567,0
DA:568,0
DA:569,0
DA:570,0
DA:571,0
DA:572,0
DA:573,0
DA:574,0
DA:575,0
DA:578,0
DA:579,0
DA:580,0
DA:581,0
DA:583,0
DA:584,0
DA:585,0
DA:586,0
DA:587,0
DA:588,0
DA:589,0
DA:590,0
DA:591,0
DA:592,0
DA:593,0
DA:594,0
DA:595,0
DA:596,0
DA:597,0
DA:598,0
DA:599,0
DA:600,0
DA:601,0
DA:602,0
DA:605,0
DA:606,0
DA:607,0
DA:608,0
DA:609,0
DA:610,0
DA:628,1
DA:629,1
DA:630,1
DA:631,1
DA:632,1
DA:633,1
DA:634,1
DA:637,1
DA:638,1
DA:639,1
DA:640,1
DA:641,1
DA:644,1
DA:645,1
DA:646,1
DA:647,1
DA:648,1
DA:649,1
DA:650,1
DA:651,1
DA:652,1
DA:653,1
DA:654,1
DA:655,1
DA:656,1
DA:659,1
DA:660,1
DA:661,1
DA:662,1
DA:663,200
DA:664,1
DA:665,1
DA:666,1
DA:667,1
DA:668,1
DA:669,1
DA:670,1
BRF:0
BRH:0
LF:477
LH:208
end_of_record
SF:/home/justin/Projects/chess-vector-engine/src/nnue.rs
FN:333,_RNvMs0_NtCsh06HHTBymxI_19chess_vector_engine4nnueNtB5_4NNUE10get_config
FN:366,_RNvMs0_NtCsh06HHTBymxI_19chess_vector_engine4nnueNtB5_4NNUE10load_model
FN:346,_RNvMs0_NtCsh06HHTBymxI_19chess_vector_engine4nnueNtB5_4NNUE10save_model
FN:263,_RNvMs0_NtCsh06HHTBymxI_19chess_vector_engine4nnueNtB5_4NNUE11train_batch
FN:389,_RNvMs0_NtCsh06HHTBymxI_19chess_vector_engine4nnueNtB5_4NNUE14get_eval_stats
FN:323,_RNvMs0_NtCsh06HHTBymxI_19chess_vector_engine4nnueNtB5_4NNUE17set_vector_weight
FN:298,_RNvMs0_NtCsh06HHTBymxI_19chess_vector_engine4nnueNtB5_4NNUE20update_incrementally
FN:328,_RNvMs0_NtCsh06HHTBymxI_19chess_vector_engine4nnueNtB5_4NNUE22set_vector_integration
FN:444,_RNvMs3_NtCsh06HHTBymxI_19chess_vector_engine4nnueNtB5_9EvalStats14add_evaluation
FN:434,_RNvMs3_NtCsh06HHTBymxI_19chess_vector_engine4nnueNtB5_9EvalStats3new
FN:85,_RNvMs_NtCsh06HHTBymxI_19chess_vector_engine4nnueNtB4_10NNUEConfig12experimental
FN:77,_RNvMs_NtCsh06HHTBymxI_19chess_vector_engine4nnueNtB4_10NNUEConfig12nnue_focused
FN:591,_RNCNvNtNtCsh06HHTBymxI_19chess_vector_engine4nnue5testss_21test_blend_strategies0B7_
FN:538,_RNvNtNtCsh06HHTBymxI_19chess_vector_engine4nnue5testss_18test_nnue_creation
FN:545,_RNvNtNtCsh06HHTBymxI_19chess_vector_engine4nnue5testss_20test_nnue_evaluation
FN:586,_RNvNtNtCsh06HHTBymxI_19chess_vector_engine4nnue5testss_21test_blend_strategies
FN:562,_RNvNtNtCsh06HHTBymxI_19chess_vector_engine4nnue5testss_22test_hybrid_evaluation
FN:573,_RNvNtNtCsh06HHTBymxI_19chess_vector_engine4nnue5testss_23test_feature_extraction
FN:486,_RINvMs4_NtCsh06HHTBymxI_19chess_vector_engine4nnueNtB6_15HybridEvaluator20set_vector_evaluatorNCNvNtB6_5testss_21test_blend_strategies0EB8_
FN:528,_RNCNvMs4_NtCsh06HHTBymxI_19chess_vector_engine4nnueNtB7_15HybridEvaluator20is_tactical_position0B9_
FN:256,_RNvMs0_NtCsh06HHTBymxI_19chess_vector_engine4nnueNtB5_4NNUE12clipped_relu
FN:156,_RNvMs0_NtCsh06HHTBymxI_19chess_vector_engine4nnueNtB5_4NNUE15evaluate_hybrid
FN:177,_RNvMs0_NtCsh06HHTBymxI_19chess_vector_engine4nnueNtB5_4NNUE16extract_features
FN:207,_RNvMs0_NtCsh06HHTBymxI_19chess_vector_engine4nnueNtB5_4NNUE19get_feature_indices
FN:98,_RNvMs0_NtCsh06HHTBymxI_19chess_vector_engine4nnueNtB5_4NNUE3new
FN:239,_RNvMs0_NtCsh06HHTBymxI_19chess_vector_engine4nnueNtB5_4NNUE7forward
FN:144,_RNvMs0_NtCsh06HHTBymxI_19chess_vector_engine4nnueNtB5_4NNUE8evaluate
FN:402,_RNvMs1_NtCsh06HHTBymxI_19chess_vector_engine4nnueNtB5_18FeatureTransformer3new
FN:525,_RNvMs4_NtCsh06HHTBymxI_19chess_vector_engine4nnueNtB5_15HybridEvaluator20is_tactical_position
FN:478,_RNvMs4_NtCsh06HHTBymxI_19chess_vector_engine4nnueNtB5_15HybridEvaluator3new
FN:493,_RNvMs4_NtCsh06HHTBymxI_19chess_vector_engine4nnueNtB5_15HybridEvaluator8evaluate
FN:69,_RNvMs_NtCsh06HHTBymxI_19chess_vector_engine4nnueNtB4_10NNUEConfig17vector_integrated
FN:54,_RNvXNtCsh06HHTBymxI_19chess_vector_engine4nnueNtB2_10NNUEConfigNtNtCs9sjCchOt1K7_4core7default7Default7default
FN:416,_RNvXs2_NtCsh06HHTBymxI_19chess_vector_engine4nnueNtB5_18FeatureTransformerNtCslAqj6xCR5nr_11candle_core6Module7forward
FNDA:0,_RNvMs0_NtCsh06HHTBymxI_19chess_vector_engine4nnueNtB5_4NNUE10get_config
FNDA:0,_RNvMs0_NtCsh06HHTBymxI_19chess_vector_engine4nnueNtB5_4NNUE10load_model
FNDA:0,_RNvMs0_NtCsh06HHTBymxI_19chess_vector_engine4nnueNtB5_4NNUE10save_model
FNDA:0,_RNvMs0_NtCsh06HHTBymxI_19chess_vector_engine4nnueNtB5_4NNUE11train_batch
FNDA:0,_RNvMs0_NtCsh06HHTBymxI_19chess_vector_engine4nnueNtB5_4NNUE14get_eval_stats
FNDA:0,_RNvMs0_NtCsh06HHTBymxI_19chess_vector_engine4nnueNtB5_4NNUE17set_vector_weight
FNDA:0,_RNvMs0_NtCsh06HHTBymxI_19chess_vector_engine4nnueNtB5_4NNUE20update_incrementally
FNDA:0,_RNvMs0_NtCsh06HHTBymxI_19chess_vector_engine4nnueNtB5_4NNUE22set_vector_integration
FNDA:0,_RNvMs3_NtCsh06HHTBymxI_19chess_vector_engine4nnueNtB5_9EvalStats14add_evaluation
FNDA:0,_RNvMs3_NtCsh06HHTBymxI_19chess_vector_engine4nnueNtB5_9EvalStats3new
FNDA:0,_RNvMs_NtCsh06HHTBymxI_19chess_vector_engine4nnueNtB4_10NNUEConfig12experimental
FNDA:0,_RNvMs_NtCsh06HHTBymxI_19chess_vector_engine4nnueNtB4_10NNUEConfig12nnue_focused
FNDA:1,_RNCNvNtNtCsh06HHTBymxI_19chess_vector_engine4nnue5testss_21test_blend_strategies0B7_
FNDA:1,_RNvNtNtCsh06HHTBymxI_19chess_vector_engine4nnue5testss_18test_nnue_creation
FNDA:1,_RNvNtNtCsh06HHTBymxI_19chess_vector_engine4nnue5testss_20test_nnue_evaluation
FNDA:1,_RNvNtNtCsh06HHTBymxI_19chess_vector_engine4nnue5testss_21test_blend_strategies
FNDA:1,_RNvNtNtCsh06HHTBymxI_19chess_vector_engine4nnue5testss_22test_hybrid_evaluation
FNDA:1,_RNvNtNtCsh06HHTBymxI_19chess_vector_engine4nnue5testss_23test_feature_extraction
FNDA:1,_RINvMs4_NtCsh06HHTBymxI_19chess_vector_engine4nnueNtB6_15HybridEvaluator20set_vector_evaluatorNCNvNtB6_5testss_21test_blend_strategies0EB8_
FNDA:0,_RNCNvMs4_NtCsh06HHTBymxI_19chess_vector_engine4nnueNtB7_15HybridEvaluator20is_tactical_position0B9_
FNDA:6,_RNvMs0_NtCsh06HHTBymxI_19chess_vector_engine4nnueNtB5_4NNUE12clipped_relu
FNDA:1,_RNvMs0_NtCsh06HHTBymxI_19chess_vector_engine4nnueNtB5_4NNUE15evaluate_hybrid
FNDA:4,_RNvMs0_NtCsh06HHTBymxI_19chess_vector_engine4nnueNtB5_4NNUE16extract_features
FNDA:128,_RNvMs0_NtCsh06HHTBymxI_19chess_vector_engine4nnueNtB5_4NNUE19get_feature_indices
FNDA:5,_RNvMs0_NtCsh06HHTBymxI_19chess_vector_engine4nnueNtB5_4NNUE3new
FNDA:3,_RNvMs0_NtCsh06HHTBymxI_19chess_vector_engine4nnueNtB5_4NNUE7forward
FNDA:3,_RNvMs0_NtCsh06HHTBymxI_19chess_vector_engine4nnueNtB5_4NNUE8evaluate
FNDA:5,_RNvMs1_NtCsh06HHTBymxI_19chess_vector_engine4nnueNtB5_18FeatureTransformer3new
FNDA:0,_RNvMs4_NtCsh06HHTBymxI_19chess_vector_engine4nnueNtB5_15HybridEvaluator20is_tactical_position
FNDA:1,_RNvMs4_NtCsh06HHTBymxI_19chess_vector_engine4nnueNtB5_15HybridEvaluator3new
FNDA:1,_RNvMs4_NtCsh06HHTBymxI_19chess_vector_engine4nnueNtB5_15HybridEvaluator8evaluate
FNDA:1,_RNvMs_NtCsh06HHTBymxI_19chess_vector_engine4nnueNtB4_10NNUEConfig17vector_integrated
FNDA:5,_RNvXNtCsh06HHTBymxI_19chess_vector_engine4nnueNtB2_10NNUEConfigNtNtCs9sjCchOt1K7_4core7default7Default7default
FNDA:3,_RNvXs2_NtCsh06HHTBymxI_19chess_vector_engine4nnueNtB5_18FeatureTransformerNtCslAqj6xCR5nr_11candle_core6Module7forward
FNF:34
FNH:20
DA:54,5
DA:55,5
DA:56,5
DA:57,5
DA:58,5
DA:59,5
DA:60,5
DA:61,5
DA:62,5
DA:63,5
DA:64,5
DA:69,1
DA:70,1
DA:71,1
DA:72,1
DA:73,1
DA:74,1
DA:77,0
DA:78,0
DA:79,0
DA:80,0
DA:81,0
DA:82,0
DA:85,0
DA:86,0
DA:87,0
DA:88,0
DA:89,0
DA:90,0
DA:91,0
DA:92,0
DA:93,0
DA:98,5
DA:99,5
DA:100,5
DA:101,5
DA:104,5
DA:105,5
DA:108,5
DA:109,5
DA:111,10
DA:112,10
DA:113,10
DA:114,10
DA:115,10
DA:116,10
DA:117,10
DA:118,10
DA:122,5
DA:125,5
DA:126,5
DA:127,5
DA:128,5
DA:129,5
DA:131,5
DA:132,5
DA:133,5
DA:134,5
DA:135,5
DA:136,5
DA:137,5
DA:138,5
DA:139,5
DA:140,5
DA:141,5
DA:144,3
DA:145,3
DA:146,3
DA:150,3
DA:151,3
DA:152,3
DA:153,3
DA:156,1
DA:157,1
DA:158,1
DA:159,1
DA:160,1
DA:161,1
DA:163,1
DA:164,0
DA:165,1
DA:166,1
DA:167,1
DA:168,1
DA:169,1
DA:170,1
DA:171,1
DA:172,1
DA:173,1
DA:177,4
DA:178,4
DA:179,4
DA:180,4
DA:181,4
DA:184,260
DA:185,256
DA:186,128
DA:187,128
DA:188,128
DA:189,128
DA:190,128
DA:193,128
DA:194,120
DA:195,120
DA:196,120
DA:197,8
DA:200,128
DA:203,4
DA:204,4
DA:207,128
DA:208,128
DA:209,128
DA:210,128
DA:211,128
DA:212,128
DA:213,128
DA:214,128
DA:215,128
DA:216,64
DA:217,16
DA:218,16
DA:219,16
DA:220,8
DA:221,8
DA:224,120
DA:225,120
DA:226,120
DA:227,120
DA:228,120
DA:229,120
DA:230,120
DA:231,120
DA:232,120
DA:234,0
DA:236,128
DA:239,3
DA:241,3
DA:244,9
DA:245,6
DA:246,6
DA:250,3
DA:252,3
DA:253,3
DA:256,6
DA:258,6
DA:259,6
DA:260,6
DA:263,0
DA:264,0
DA:265,0
DA:267,0
DA:269,0
DA:272,0
DA:275,0
DA:278,0
DA:279,0
DA:280,0
DA:283,0
DA:285,0
DA:288,0
DA:289,0
DA:291,0
DA:294,0
DA:295,0
DA:298,0
DA:299,0
DA:300,0
DA:301,0
DA:302,0
DA:303,0
DA:304,0
DA:305,0
DA:306,0
DA:310,0
DA:311,0
DA:312,0
DA:313,0
DA:314,0
DA:315,0
DA:316,0
DA:317,0
DA:318,0
DA:319,0
DA:320,0
DA:323,0
DA:324,0
DA:325,0
DA:328,0
DA:329,0
DA:330,0
DA:333,0
DA:334,0
DA:335,0
DA:336,0
DA:337,0
DA:338,0
DA:339,0
DA:340,0
DA:341,0
DA:342,0
DA:343,0
DA:346,0
DA:352,0
DA:353,0
DA:355,0
DA:356,0
DA:359,0
DA:360,0
DA:361,0
DA:362,0
DA:363,0
DA:366,0
DA:370,0
DA:371,0
DA:372,0
DA:373,0
DA:376,0
DA:377,0
DA:378,0
DA:379,0
DA:380,0
DA:382,0
DA:385,0
DA:386,0
DA:389,0
DA:390,0
DA:392,0
DA:393,0
DA:394,0
DA:397,0
DA:398,0
DA:402,5
DA:403,5
DA:404,5
DA:406,5
DA:407,5
DA:408,5
DA:409,5
DA:410,5
DA:411,5
DA:412,5
DA:416,3
DA:418,3
DA:419,3
DA:420,3
DA:434,0
DA:435,0
DA:436,0
DA:437,0
DA:438,0
DA:439,0
DA:440,0
DA:441,0
DA:442,0
DA:444,0
DA:445,0
DA:446,0
DA:447,0
DA:448,0
DA:449,0
DA:450,0
DA:451,0
DA:452,0
DA:453,0
DA:454,0
DA:455,0
DA:456,0
DA:457,0
DA:458,0
DA:459,0
DA:478,1
DA:479,1
DA:480,1
DA:481,1
DA:482,1
DA:483,1
DA:484,1
DA:486,1
DA:487,1
DA:488,1
DA:489,1
DA:490,1
DA:491,1
DA:493,1
DA:494,1
DA:496,1
DA:497,1
DA:499,0
DA:502,1
DA:503,1
DA:504,1
DA:505,1
DA:507,0
DA:512,0
DA:513,0
DA:515,0
DA:516,0
DA:518,0
DA:521,0
DA:523,1
DA:525,0
DA:526,0
DA:527,0
DA:528,0
DA:529,0
DA:538,1
DA:539,1
DA:540,1
DA:541,1
DA:542,1
DA:545,1
DA:546,1
DA:547,1
DA:548,1
DA:549,1
DA:550,1
DA:551,1
DA:552,0
DA:553,0
DA:554,1
DA:555,1
DA:556,1
DA:557,1
DA:558,1
DA:559,1
DA:562,1
DA:563,1
DA:564,1
DA:565,1
DA:566,1
DA:567,1
DA:568,1
DA:569,1
DA:570,1
DA:573,1
DA:574,1
DA:575,1
DA:576,1
DA:577,1
DA:578,1
DA:579,1
DA:581,1
DA:582,1
DA:583,1
DA:586,1
DA:587,1
DA:588,1
DA:589,1
DA:590,1
DA:591,1
DA:592,1
DA:593,1
DA:594,1
DA:595,1
DA:596,1
BRF:0
BRH:0
LF:357
LH:215
end_of_record
SF:/home/justin/Projects/chess-vector-engine/src/opening_book.rs
FN:81,_RNCNvMNtCsh06HHTBymxI_19chess_vector_engine12opening_bookNtB4_11OpeningBook18get_random_opening0B6_
FN:72,_RNvMNtCsh06HHTBymxI_19chess_vector_engine12opening_bookNtB2_11OpeningBook16get_all_openings
FN:77,_RNvMNtCsh06HHTBymxI_19chess_vector_engine12opening_bookNtB2_11OpeningBook18get_random_opening
FN:1103,_RNCNvNtNtCsh06HHTBymxI_19chess_vector_engine12opening_book5testss_23test_eco_code_filtering0B7_
FN:1109,_RNCNvNtNtCsh06HHTBymxI_19chess_vector_engine12opening_book5testss_23test_eco_code_filterings_0B7_
FN:1130,_RNCNvNtNtCsh06HHTBymxI_19chess_vector_engine12opening_book5testss_27test_opening_move_strengths0B7_
FN:1235,_RNCNvNtNtCsh06HHTBymxI_19chess_vector_engine12opening_book5testss_30test_advanced_opening_coverage0B7_
FN:1238,_RNCNvNtNtCsh06HHTBymxI_19chess_vector_engine12opening_book5testss_30test_advanced_opening_coverages0_0B7_
FN:1239,_RNCNvNtNtCsh06HHTBymxI_19chess_vector_engine12opening_book5testss_30test_advanced_opening_coverages1_0B7_
FN:1240,_RNCNvNtNtCsh06HHTBymxI_19chess_vector_engine12opening_book5testss_30test_advanced_opening_coverages2_0B7_
FN:1237,_RNCNvNtNtCsh06HHTBymxI_19chess_vector_engine12opening_book5testss_30test_advanced_opening_coverages_0B7_
FN:46,_RNCNvMNtCsh06HHTBymxI_19chess_vector_engine12opening_bookNtB4_11OpeningBook11add_opening0B6_
FN:986,_RNCNvMNtCsh06HHTBymxI_19chess_vector_engine12opening_bookNtB4_11OpeningBook5stats0B6_
FN:993,_RNCNvMNtCsh06HHTBymxI_19chess_vector_engine12opening_bookNtB4_11OpeningBook5statss_0B6_
FN:37,_RNvMNtCsh06HHTBymxI_19chess_vector_engine12opening_bookNtB2_11OpeningBook11add_opening
FN:242,_RNvMNtCsh06HHTBymxI_19chess_vector_engine12opening_bookNtB2_11OpeningBook19add_deeper_openings
FN:710,_RNvMNtCsh06HHTBymxI_19chess_vector_engine12opening_bookNtB2_11OpeningBook19add_modern_openings
FN:89,_RNvMNtCsh06HHTBymxI_19chess_vector_engine12opening_bookNtB2_11OpeningBook21add_standard_openings
FN:30,_RNvMNtCsh06HHTBymxI_19chess_vector_engine12opening_bookNtB2_11OpeningBook22with_standard_openings
FN:353,_RNvMNtCsh06HHTBymxI_19chess_vector_engine12opening_bookNtB2_11OpeningBook26add_comprehensive_openings
FN:23,_RNvMNtCsh06HHTBymxI_19chess_vector_engine12opening_bookNtB2_11OpeningBook3new
FN:981,_RNvMNtCsh06HHTBymxI_19chess_vector_engine12opening_bookNtB2_11OpeningBook5stats
FN:60,_RNvMNtCsh06HHTBymxI_19chess_vector_engine12opening_bookNtB2_11OpeningBook6lookup
FN:66,_RNvMNtCsh06HHTBymxI_19chess_vector_engine12opening_bookNtB2_11OpeningBook8contains
FN:1065,_RNvNtNtCsh06HHTBymxI_19chess_vector_engine12opening_book5testss_10test_stats
FN:1039,_RNvNtNtCsh06HHTBymxI_19chess_vector_engine12opening_book5testss_19test_opening_lookup
FN:1027,_RNvNtNtCsh06HHTBymxI_19chess_vector_engine12opening_book5testss_22test_standard_openings
FN:1092,_RNvNtNtCsh06HHTBymxI_19chess_vector_engine12opening_book5testss_23test_eco_code_filtering
FN:1074,_RNvNtNtCsh06HHTBymxI_19chess_vector_engine12opening_book5testss_25test_invalid_fen_handling
FN:1021,_RNvNtNtCsh06HHTBymxI_19chess_vector_engine12opening_book5testss_26test_opening_book_creation
FN:1116,_RNvNtNtCsh06HHTBymxI_19chess_vector_engine12opening_book5testss_27test_opening_move_strengths
FN:1158,_RNvNtNtCsh06HHTBymxI_19chess_vector_engine12opening_book5testss_29test_opening_book_consistency
FN:1223,_RNvNtNtCsh06HHTBymxI_19chess_vector_engine12opening_book5testss_30test_advanced_opening_coverage
FN:1185,_RNvNtNtCsh06HHTBymxI_19chess_vector_engine12opening_book5testss_32test_duplicate_position_handling
FN:1137,_RNvNtNtCsh06HHTBymxI_19chess_vector_engine12opening_book5testss_35test_non_starting_position_openings
FNDA:0,_RNCNvMNtCsh06HHTBymxI_19chess_vector_engine12opening_bookNtB4_11OpeningBook18get_random_opening0B6_
FNDA:0,_RNvMNtCsh06HHTBymxI_19chess_vector_engine12opening_bookNtB2_11OpeningBook16get_all_openings
FNDA:0,_RNvMNtCsh06HHTBymxI_19chess_vector_engine12opening_bookNtB2_11OpeningBook18get_random_opening
FNDA:47,_RNCNvNtNtCsh06HHTBymxI_19chess_vector_engine12opening_book5testss_23test_eco_code_filtering0B7_
FNDA:32,_RNCNvNtNtCsh06HHTBymxI_19chess_vector_engine12opening_book5testss_23test_eco_code_filterings_0B7_
FNDA:4,_RNCNvNtNtCsh06HHTBymxI_19chess_vector_engine12opening_book5testss_27test_opening_move_strengths0B7_
FNDA:47,_RNCNvNtNtCsh06HHTBymxI_19chess_vector_engine12opening_book5testss_30test_advanced_opening_coverage0B7_
FNDA:41,_RNCNvNtNtCsh06HHTBymxI_19chess_vector_engine12opening_book5testss_30test_advanced_opening_coverages0_0B7_
FNDA:44,_RNCNvNtNtCsh06HHTBymxI_19chess_vector_engine12opening_book5testss_30test_advanced_opening_coverages1_0B7_
FNDA:4,_RNCNvNtNtCsh06HHTBymxI_19chess_vector_engine12opening_book5testss_30test_advanced_opening_coverages2_0B7_
FNDA:7,_RNCNvNtNtCsh06HHTBymxI_19chess_vector_engine12opening_book5testss_30test_advanced_opening_coverages_0B7_
FNDA:1,_RNCNvMNtCsh06HHTBymxI_19chess_vector_engine12opening_bookNtB4_11OpeningBook11add_opening0B6_
FNDA:188,_RNCNvMNtCsh06HHTBymxI_19chess_vector_engine12opening_bookNtB4_11OpeningBook5stats0B6_
FNDA:188,_RNCNvMNtCsh06HHTBymxI_19chess_vector_engine12opening_bookNtB4_11OpeningBook5statss_0B6_
FNDA:1180,_RNvMNtCsh06HHTBymxI_19chess_vector_engine12opening_bookNtB2_11OpeningBook11add_opening
FNDA:24,_RNvMNtCsh06HHTBymxI_19chess_vector_engine12opening_bookNtB2_11OpeningBook19add_deeper_openings
FNDA:24,_RNvMNtCsh06HHTBymxI_19chess_vector_engine12opening_bookNtB2_11OpeningBook19add_modern_openings
FNDA:24,_RNvMNtCsh06HHTBymxI_19chess_vector_engine12opening_bookNtB2_11OpeningBook21add_standard_openings
FNDA:24,_RNvMNtCsh06HHTBymxI_19chess_vector_engine12opening_bookNtB2_11OpeningBook22with_standard_openings
FNDA:24,_RNvMNtCsh06HHTBymxI_19chess_vector_engine12opening_bookNtB2_11OpeningBook26add_comprehensive_openings
FNDA:28,_RNvMNtCsh06HHTBymxI_19chess_vector_engine12opening_bookNtB2_11OpeningBook3new
FNDA:4,_RNvMNtCsh06HHTBymxI_19chess_vector_engine12opening_bookNtB2_11OpeningBook5stats
FNDA:18,_RNvMNtCsh06HHTBymxI_19chess_vector_engine12opening_bookNtB2_11OpeningBook6lookup
FNDA:3,_RNvMNtCsh06HHTBymxI_19chess_vector_engine12opening_bookNtB2_11OpeningBook8contains
FNDA:1,_RNvNtNtCsh06HHTBymxI_19chess_vector_engine12opening_book5testss_10test_stats
FNDA:1,_RNvNtNtCsh06HHTBymxI_19chess_vector_engine12opening_book5testss_19test_opening_lookup
FNDA:1,_RNvNtNtCsh06HHTBymxI_19chess_vector_engine12opening_book5testss_22test_standard_openings
FNDA:1,_RNvNtNtCsh06HHTBymxI_19chess_vector_engine12opening_book5testss_23test_eco_code_filtering
FNDA:1,_RNvNtNtCsh06HHTBymxI_19chess_vector_engine12opening_book5testss_25test_invalid_fen_handling
FNDA:1,_RNvNtNtCsh06HHTBymxI_19chess_vector_engine12opening_book5testss_26test_opening_book_creation
FNDA:1,_RNvNtNtCsh06HHTBymxI_19chess_vector_engine12opening_book5testss_27test_opening_move_strengths
FNDA:1,_RNvNtNtCsh06HHTBymxI_19chess_vector_engine12opening_book5testss_29test_opening_book_consistency
FNDA:1,_RNvNtNtCsh06HHTBymxI_19chess_vector_engine12opening_book5testss_30test_advanced_opening_coverage
FNDA:1,_RNvNtNtCsh06HHTBymxI_19chess_vector_engine12opening_book5testss_32test_duplicate_position_handling
FNDA:1,_RNvNtNtCsh06HHTBymxI_19chess_vector_engine12opening_book5testss_35test_non_starting_position_openings
FNF:35
FNH:32
DA:23,28
DA:24,28
DA:25,28
DA:26,28
DA:27,28
DA:30,24
DA:31,24
DA:32,24
DA:33,24
DA:34,24
DA:37,1180
DA:38,1180
DA:39,1180
DA:40,1180
DA:41,1180
DA:42,1180
DA:43,1180
DA:44,1180
DA:45,1180
DA:46,1180
DA:48,1179
DA:49,1179
DA:50,1179
DA:51,1179
DA:52,1179
DA:53,1179
DA:54,1179
DA:55,1179
DA:56,1179
DA:57,1180
DA:60,18
DA:61,18
DA:62,18
DA:63,18
DA:66,3
DA:67,3
DA:68,3
DA:69,3
DA:72,0
DA:73,0
DA:74,0
DA:77,0
DA:79,0
DA:80,0
DA:81,0
DA:82,0
DA:84,0
DA:86,0
DA:89,24
DA:91,24
DA:92,24
DA:93,24
DA:94,24
DA:95,24
DA:96,24
DA:97,24
DA:98,24
DA:99,24
DA:100,24
DA:101,24
DA:102,24
DA:103,24
DA:104,24
DA:105,24
DA:106,24
DA:107,24
DA:110,24
DA:111,24
DA:112,24
DA:113,24
DA:114,24
DA:115,24
DA:116,24
DA:117,24
DA:118,24
DA:119,24
DA:120,24
DA:121,24
DA:122,24
DA:123,24
DA:124,24
DA:125,24
DA:126,24
DA:129,24
DA:130,24
DA:131,24
DA:132,24
DA:133,24
DA:134,24
DA:135,24
DA:136,24
DA:137,24
DA:138,24
DA:139,24
DA:140,24
DA:141,24
DA:142,24
DA:143,24
DA:144,24
DA:147,24
DA:148,24
DA:149,24
DA:150,24
DA:151,24
DA:152,24
DA:153,24
DA:154,24
DA:155,24
DA:156,24
DA:157,24
DA:158,24
DA:159,24
DA:160,24
DA:161,24
DA:162,24
DA:165,24
DA:166,24
DA:167,24
DA:168,24
DA:169,24
DA:170,24
DA:171,24
DA:172,24
DA:173,24
DA:174,24
DA:175,24
DA:176,24
DA:177,24
DA:178,24
DA:179,24
DA:180,24
DA:183,24
DA:184,24
DA:185,24
DA:186,24
DA:187,24
DA:188,24
DA:189,24
DA:190,24
DA:191,24
DA:192,24
DA:193,24
DA:194,24
DA:195,24
DA:196,24
DA:197,24
DA:198,24
DA:199,24
DA:202,24
DA:203,24
DA:204,24
DA:205,24
DA:206,24
DA:207,24
DA:208,24
DA:209,24
DA:210,24
DA:211,24
DA:212,24
DA:213,24
DA:214,24
DA:215,24
DA:216,24
DA:217,24
DA:220,24
DA:221,24
DA:222,24
DA:223,24
DA:224,24
DA:225,24
DA:226,24
DA:227,24
DA:228,24
DA:229,24
DA:230,24
DA:231,24
DA:232,24
DA:233,24
DA:234,24
DA:235,24
DA:238,24
DA:239,24
DA:242,24
DA:244,24
DA:245,24
DA:246,24
DA:247,24
DA:248,24
DA:249,24
DA:250,24
DA:251,24
DA:252,24
DA:253,24
DA:254,24
DA:255,24
DA:256,24
DA:257,24
DA:258,24
DA:259,24
DA:262,24
DA:263,24
DA:264,24
DA:265,24
DA:266,24
DA:267,24
DA:268,24
DA:269,24
DA:270,24
DA:271,24
DA:272,24
DA:273,24
DA:274,24
DA:275,24
DA:276,24
DA:279,24
DA:280,24
DA:281,24
DA:282,24
DA:283,24
DA:284,24
DA:285,24
DA:286,24
DA:287,24
DA:288,24
DA:289,24
DA:290,24
DA:291,24
DA:292,24
DA:295,24
DA:296,24
DA:297,24
DA:298,24
DA:299,24
DA:300,24
DA:301,24
DA:302,24
DA:303,24
DA:304,24
DA:305,24
DA:306,24
DA:307,24
DA:308,24
DA:309,24
DA:310,24
DA:313,24
DA:314,24
DA:315,24
DA:316,24
DA:317,24
DA:318,24
DA:319,24
DA:320,24
DA:321,24
DA:322,24
DA:323,24
DA:324,24
DA:325,24
DA:326,24
DA:327,24
DA:328,24
DA:331,24
DA:332,24
DA:333,24
DA:334,24
DA:335,24
DA:336,24
DA:337,24
DA:338,24
DA:339,24
DA:340,24
DA:341,24
DA:342,24
DA:343,24
DA:344,24
DA:345,24
DA:346,24
DA:349,24
DA:350,24
DA:353,24
DA:355,24
DA:356,24
DA:357,24
DA:358,24
DA:359,24
DA:360,24
DA:361,24
DA:362,24
DA:363,24
DA:364,24
DA:365,24
DA:366,24
DA:367,24
DA:368,24
DA:371,24
DA:372,24
DA:373,24
DA:374,24
DA:375,24
DA:376,24
DA:377,24
DA:378,24
DA:379,24
DA:380,24
DA:381,24
DA:382,24
DA:383,24
DA:384,24
DA:385,24
DA:388,24
DA:389,24
DA:390,24
DA:391,24
DA:392,24
DA:393,24
DA:394,24
DA:395,24
DA:396,24
DA:397,24
DA:398,24
DA:399,24
DA:400,24
DA:401,24
DA:402,24
DA:403,24
DA:406,24
DA:407,24
DA:408,24
DA:409,24
DA:410,24
DA:411,24
DA:412,24
DA:413,24
DA:414,24
DA:415,24
DA:416,24
DA:417,24
DA:418,24
DA:419,24
DA:420,24
DA:421,24
DA:424,24
DA:425,24
DA:426,24
DA:427,24
DA:428,24
DA:429,24
DA:430,24
DA:431,24
DA:432,24
DA:433,24
DA:434,24
DA:435,24
DA:436,24
DA:437,24
DA:438,24
DA:439,24
DA:442,24
DA:443,24
DA:444,24
DA:445,24
DA:446,24
DA:447,24
DA:448,24
DA:449,24
DA:450,24
DA:451,24
DA:452,24
DA:453,24
DA:454,24
DA:455,24
DA:456,24
DA:459,24
DA:460,24
DA:461,24
DA:462,24
DA:463,24
DA:464,24
DA:465,24
DA:466,24
DA:467,24
DA:468,24
DA:469,24
DA:470,24
DA:471,24
DA:472,24
DA:473,24
DA:474,24
DA:477,24
DA:478,24
DA:479,24
DA:480,24
DA:481,24
DA:482,24
DA:483,24
DA:484,24
DA:485,24
DA:486,24
DA:487,24
DA:488,24
DA:489,24
DA:490,24
DA:491,24
DA:492,24
DA:495,24
DA:496,24
DA:497,24
DA:498,24
DA:499,24
DA:500,24
DA:501,24
DA:502,24
DA:503,24
DA:504,24
DA:505,24
DA:506,24
DA:507,24
DA:508,24
DA:509,24
DA:512,24
DA:513,24
DA:514,24
DA:515,24
DA:516,24
DA:517,24
DA:518,24
DA:519,24
DA:520,24
DA:521,24
DA:522,24
DA:523,24
DA:524,24
DA:525,24
DA:526,24
DA:527,24
DA:530,24
DA:531,24
DA:532,24
DA:533,24
DA:534,24
DA:535,24
DA:536,24
DA:537,24
DA:538,24
DA:539,24
DA:540,24
DA:541,24
DA:542,24
DA:543,24
DA:544,24
DA:545,24
DA:548,24
DA:549,24
DA:550,24
DA:551,24
DA:552,24
DA:553,24
DA:554,24
DA:555,24
DA:556,24
DA:557,24
DA:558,24
DA:559,24
DA:560,24
DA:561,24
DA:562,24
DA:565,24
DA:566,24
DA:567,24
DA:568,24
DA:569,24
DA:570,24
DA:571,24
DA:572,24
DA:573,24
DA:574,24
DA:575,24
DA:576,24
DA:577,24
DA:578,24
DA:579,24
DA:580,24
DA:583,24
DA:584,24
DA:585,24
DA:586,24
DA:587,24
DA:588,24
DA:589,24
DA:590,24
DA:591,24
DA:592,24
DA:593,24
DA:594,24
DA:595,24
DA:596,24
DA:597,24
DA:598,24
DA:601,24
DA:602,24
DA:603,24
DA:604,24
DA:605,24
DA:606,24
DA:607,24
DA:608,24
DA:609,24
DA:610,24
DA:611,24
DA:612,24
DA:613,24
DA:614,24
DA:615,24
DA:618,24
DA:619,24
DA:620,24
DA:621,24
DA:622,24
DA:623,24
DA:624,24
DA:625,24
DA:626,24
DA:627,24
DA:628,24
DA:629,24
DA:630,24
DA:631,24
DA:632,24
DA:633,24
DA:636,24
DA:637,24
DA:638,24
DA:639,24
DA:640,24
DA:641,24
DA:642,24
DA:643,24
DA:644,24
DA:645,24
DA:646,24
DA:647,24
DA:648,24
DA:649,24
DA:650,24
DA:651,24
DA:654,24
DA:655,24
DA:656,24
DA:657,24
DA:658,24
DA:659,24
DA:660,24
DA:661,24
DA:662,24
DA:663,24
DA:664,24
DA:665,24
DA:666,24
DA:667,24
DA:668,24
DA:671,24
DA:672,24
DA:673,24
DA:674,24
DA:675,24
DA:676,24
DA:677,24
DA:678,24
DA:679,24
DA:680,24
DA:681,24
DA:682,24
DA:683,24
DA:684,24
DA:685,24
DA:688,24
DA:689,24
DA:690,24
DA:691,24
DA:692,24
DA:693,24
DA:694,24
DA:695,24
DA:696,24
DA:697,24
DA:698,24
DA:699,24
DA:700,24
DA:701,24
DA:702,24
DA:703,24
DA:706,24
DA:707,24
DA:710,24
DA:712,24
DA:713,24
DA:714,24
DA:715,24
DA:716,24
DA:717,24
DA:718,24
DA:719,24
DA:720,24
DA:721,24
DA:722,24
DA:723,24
DA:724,24
DA:725,24
DA:726,24
DA:727,24
DA:730,24
DA:731,24
DA:732,24
DA:733,24
DA:734,24
DA:735,24
DA:736,24
DA:737,24
DA:738,24
DA:739,24
DA:740,24
DA:741,24
DA:742,24
DA:743,24
DA:744,24
DA:745,24
DA:748,24
DA:749,24
DA:750,24
DA:751,24
DA:752,24
DA:753,24
DA:754,24
DA:755,24
DA:756,24
DA:757,24
DA:758,24
DA:759,24
DA:760,24
DA:761,24
DA:762,24
DA:763,24
DA:766,24
DA:767,24
DA:768,24
DA:769,24
DA:770,24
DA:771,24
DA:772,24
DA:773,24
DA:774,24
DA:775,24
DA:776,24
DA:777,24
DA:778,24
DA:779,24
DA:780,24
DA:781,24
DA:784,24
DA:785,24
DA:786,24
DA:787,24
DA:788,24
DA:789,24
DA:790,24
DA:791,24
DA:792,24
DA:793,24
DA:794,24
DA:795,24
DA:796,24
DA:797,24
DA:798,24
DA:799,24
DA:802,24
DA:803,24
DA:804,24
DA:805,24
DA:806,24
DA:807,24
DA:808,24
DA:809,24
DA:810,24
DA:811,24
DA:812,24
DA:813,24
DA:814,24
DA:815,24
DA:816,24
DA:819,24
DA:820,24
DA:821,24
DA:822,24
DA:823,24
DA:824,24
DA:825,24
DA:826,24
DA:827,24
DA:828,24
DA:829,24
DA:830,24
DA:831,24
DA:832,24
DA:833,24
DA:834,24
DA:837,24
DA:838,24
DA:839,24
DA:840,24
DA:841,24
DA:842,24
DA:843,24
DA:844,24
DA:845,24
DA:846,24
DA:847,24
DA:848,24
DA:849,24
DA:850,24
DA:851,24
DA:852,24
DA:855,24
DA:856,24
DA:857,24
DA:858,24
DA:859,24
DA:860,24
DA:861,24
DA:862,24
DA:863,24
DA:864,24
DA:865,24
DA:866,24
DA:867,24
DA:868,24
DA:869,24
DA:870,24
DA:873,24
DA:874,24
DA:875,24
DA:876,24
DA:877,24
DA:878,24
DA:879,24
DA:880,24
DA:881,24
DA:882,24
DA:883,24
DA:884,24
DA:885,24
DA:886,24
DA:887,24
DA:888,24
DA:891,24
DA:892,24
DA:893,24
DA:894,24
DA:895,24
DA:896,24
DA:897,24
DA:898,24
DA:899,24
DA:900,24
DA:901,24
DA:902,24
DA:903,24
DA:904,24
DA:905,24
DA:908,24
DA:909,24
DA:910,24
DA:911,24
DA:912,24
DA:913,24
DA:914,24
DA:915,24
DA:916,24
DA:917,24
DA:918,24
DA:919,24
DA:920,24
DA:921,24
DA:922,24
DA:923,24
DA:926,24
DA:927,24
DA:928,24
DA:929,24
DA:930,24
DA:931,24
DA:932,24
DA:933,24
DA:934,24
DA:935,24
DA:936,24
DA:937,24
DA:938,24
DA:939,24
DA:940,24
DA:941,24
DA:944,24
DA:945,24
DA:946,24
DA:947,24
DA:948,24
DA:949,24
DA:950,24
DA:951,24
DA:952,24
DA:953,24
DA:954,24
DA:955,24
DA:956,24
DA:957,24
DA:958,24
DA:959,24
DA:962,24
DA:963,24
DA:964,24
DA:965,24
DA:966,24
DA:967,24
DA:968,24
DA:969,24
DA:970,24
DA:971,24
DA:972,24
DA:973,24
DA:974,24
DA:975,24
DA:976,24
DA:977,24
DA:978,24
DA:981,4
DA:982,4
DA:983,4
DA:984,4
DA:985,4
DA:986,188
DA:987,4
DA:988,4
DA:990,4
DA:991,4
DA:992,4
DA:993,188
DA:994,4
DA:995,4
DA:997,0
DA:1000,4
DA:1001,4
DA:1002,4
DA:1003,4
DA:1004,4
DA:1005,4
DA:1021,1
DA:1022,1
DA:1023,1
DA:1024,1
DA:1027,1
DA:1028,1
DA:1029,1
DA:1032,1
DA:1033,1
DA:1034,1
DA:1035,1
DA:1036,1
DA:1039,1
DA:1040,1
DA:1041,1
DA:1042,1
DA:1043,1
DA:1044,1
DA:1047,1
DA:1048,1
DA:1049,1
DA:1050,1
DA:1051,1
DA:1052,1
DA:1053,1
DA:1054,1
DA:1055,1
DA:1056,1
DA:1057,1
DA:1058,1
DA:1059,1
DA:1060,1
DA:1061,1
DA:1062,1
DA:1065,1
DA:1066,1
DA:1067,1
DA:1068,1
DA:1069,1
DA:1070,1
DA:1071,1
DA:1074,1
DA:1075,1
DA:1076,1
DA:1077,1
DA:1078,1
DA:1079,1
DA:1080,1
DA:1081,1
DA:1082,1
DA:1083,1
DA:1084,1
DA:1085,1
DA:1086,1
DA:1087,1
DA:1088,1
DA:1089,1
DA:1092,1
DA:1093,1
DA:1094,1
DA:1095,1
DA:1096,1
DA:1097,1
DA:1100,1
DA:1101,1
DA:1102,1
DA:1103,47
DA:1104,1
DA:1105,1
DA:1106,1
DA:1109,32
DA:1110,32
DA:1111,32
DA:1112,1
DA:1113,1
DA:1116,1
DA:1117,1
DA:1118,1
DA:1120,1
DA:1122,5
DA:1123,4
DA:1127,1
DA:1128,1
DA:1129,1
DA:1130,4
DA:1131,1
DA:1132,1
DA:1133,0
DA:1134,1
DA:1137,1
DA:1138,1
DA:1141,1
DA:1142,1
DA:1144,1
DA:1145,1
DA:1146,1
DA:1147,1
DA:1148,1
DA:1149,1
DA:1150,0
DA:1151,0
DA:1153,0
DA:1154,0
DA:1155,1
DA:1158,1
DA:1159,1
DA:1162,48
DA:1163,47
DA:1164,47
DA:1165,0
DA:1168,47
DA:1169,47
DA:1170,47
DA:1171,0
DA:1176,47
DA:1177,47
DA:1178,0
DA:1182,1
DA:1185,1
DA:1186,1
DA:1187,1
DA:1188,1
DA:1189,1
DA:1190,1
DA:1191,1
DA:1192,1
DA:1193,1
DA:1194,1
DA:1195,1
DA:1196,1
DA:1197,1
DA:1198,1
DA:1199,1
DA:1200,1
DA:1201,1
DA:1202,1
DA:1205,1
DA:1206,1
DA:1207,1
DA:1208,1
DA:1209,1
DA:1210,1
DA:1211,1
DA:1212,1
DA:1213,1
DA:1216,1
DA:1217,1
DA:1218,1
DA:1219,1
DA:1220,1
DA:1223,1
DA:1224,1
DA:1225,1
DA:1226,1
DA:1227,1
DA:1228,1
DA:1229,1
DA:1230,0
DA:1235,47
DA:1236,1
DA:1237,7
DA:1238,41
DA:1239,44
DA:1240,4
DA:1241,1
DA:1242,1
DA:1243,1
DA:1244,0
DA:1246,1
BRF:0
BRH:0
LF:1035
LH:1013
end_of_record
SF:/home/justin/Projects/chess-vector-engine/src/persistence.rs
FN:33,_RINvMNtCsh06HHTBymxI_19chess_vector_engine11persistenceNtB3_8Database3newpEB5_
FN:399,_RNCNCNvMNtCsh06HHTBymxI_19chess_vector_engine11persistenceNtB6_8Database18get_position_by_id00B8_
FN:409,_RNCNCNvMNtCsh06HHTBymxI_19chess_vector_engine11persistenceNtB6_8Database18get_position_by_id0s_0B8_
FN:210,_RNCNCNvMNtCsh06HHTBymxI_19chess_vector_engine11persistenceNtB6_8Database18load_all_positions00B8_
FN:220,_RNCNCNvMNtCsh06HHTBymxI_19chess_vector_engine11persistenceNtB6_8Database18load_all_positions0s_0B8_
FN:494,_RNCNCNvMNtCsh06HHTBymxI_19chess_vector_engine11persistenceNtB6_8Database20load_positions_batch00B8_
FN:504,_RNCNCNvMNtCsh06HHTBymxI_19chess_vector_engine11persistenceNtB6_8Database20load_positions_batch0s_0B8_
FN:319,_RNCNvMNtCsh06HHTBymxI_19chess_vector_engine11persistenceNtB4_8Database16load_lsh_buckets0B6_
FN:397,_RNCNvMNtCsh06HHTBymxI_19chess_vector_engine11persistenceNtB4_8Database18get_position_by_id0B6_
FN:208,_RNCNvMNtCsh06HHTBymxI_19chess_vector_engine11persistenceNtB4_8Database18load_all_positions0B6_
FN:375,_RNCNvMNtCsh06HHTBymxI_19chess_vector_engine11persistenceNtB4_8Database19load_manifold_model0B6_
FN:351,_RNCNvMNtCsh06HHTBymxI_19chess_vector_engine11persistenceNtB4_8Database19save_manifold_model0B6_
FN:492,_RNCNvMNtCsh06HHTBymxI_19chess_vector_engine11persistenceNtB4_8Database20load_positions_batch0B6_
FN:452,_RNCNvMNtCsh06HHTBymxI_19chess_vector_engine11persistenceNtB4_8Database20save_positions_batch0B6_
FN:462,_RNCNvMNtCsh06HHTBymxI_19chess_vector_engine11persistenceNtB4_8Database20save_positions_batchs0_0B6_
FN:464,_RNCNvMNtCsh06HHTBymxI_19chess_vector_engine11persistenceNtB4_8Database20save_positions_batchs1_0B6_
FN:457,_RNCNvMNtCsh06HHTBymxI_19chess_vector_engine11persistenceNtB4_8Database20save_positions_batchs_0B6_
FN:530,_RNCNvMNtCsh06HHTBymxI_19chess_vector_engine11persistenceNtB4_8Database24get_total_position_count0B6_
FN:300,_RNvMNtCsh06HHTBymxI_19chess_vector_engine11persistenceNtB2_8Database15save_lsh_bucket
FN:314,_RNvMNtCsh06HHTBymxI_19chess_vector_engine11persistenceNtB2_8Database16load_lsh_buckets
FN:324,_RNvMNtCsh06HHTBymxI_19chess_vector_engine11persistenceNtB2_8Database17clear_lsh_buckets
FN:391,_RNvMNtCsh06HHTBymxI_19chess_vector_engine11persistenceNtB2_8Database18get_position_by_id
FN:202,_RNvMNtCsh06HHTBymxI_19chess_vector_engine11persistenceNtB2_8Database18load_all_positions
FN:369,_RNvMNtCsh06HHTBymxI_19chess_vector_engine11persistenceNtB2_8Database19load_manifold_model
FN:340,_RNvMNtCsh06HHTBymxI_19chess_vector_engine11persistenceNtB2_8Database19save_manifold_model
FN:482,_RNvMNtCsh06HHTBymxI_19chess_vector_engine11persistenceNtB2_8Database20load_positions_batch
FN:437,_RNvMNtCsh06HHTBymxI_19chess_vector_engine11persistenceNtB2_8Database20save_positions_batch
FN:528,_RNvMNtCsh06HHTBymxI_19chess_vector_engine11persistenceNtB2_8Database24get_total_position_count
FN:335,_RNvMNtCsh06HHTBymxI_19chess_vector_engine11persistenceNtB2_8Database6vacuum
FN:546,_RNvNtNtCsh06HHTBymxI_19chess_vector_engine11persistence5testss_21test_position_storage
FN:540,_RNvNtNtCsh06HHTBymxI_19chess_vector_engine11persistence5testss_22test_database_creation
FN:568,_RNvNtNtCsh06HHTBymxI_19chess_vector_engine11persistence5testss_23test_lsh_config_storage
FN:51,_RNvMNtCsh06HHTBymxI_19chess_vector_engine11persistenceNtB2_8Database13create_tables
FN:157,_RNvMNtCsh06HHTBymxI_19chess_vector_engine11persistenceNtB2_8Database13load_position
FN:125,_RNvMNtCsh06HHTBymxI_19chess_vector_engine11persistenceNtB2_8Database13save_position
FN:268,_RNvMNtCsh06HHTBymxI_19chess_vector_engine11persistenceNtB2_8Database15load_lsh_config
FN:243,_RNvMNtCsh06HHTBymxI_19chess_vector_engine11persistenceNtB2_8Database15save_lsh_config
FN:329,_RNvMNtCsh06HHTBymxI_19chess_vector_engine11persistenceNtB2_8Database18get_position_count
FN:44,_RNvMNtCsh06HHTBymxI_19chess_vector_engine11persistenceNtB2_8Database9in_memory
FN:165,_RNCNCNvMNtCsh06HHTBymxI_19chess_vector_engine11persistenceNtB6_8Database13load_position00B8_
FN:175,_RNCNCNvMNtCsh06HHTBymxI_19chess_vector_engine11persistenceNtB6_8Database13load_position0s_0B8_
FN:277,_RNCNCNvMNtCsh06HHTBymxI_19chess_vector_engine11persistenceNtB6_8Database15load_lsh_config00B8_
FN:163,_RNCNvMNtCsh06HHTBymxI_19chess_vector_engine11persistenceNtB4_8Database13load_position0B6_
FN:127,_RNCNvMNtCsh06HHTBymxI_19chess_vector_engine11persistenceNtB4_8Database13save_position0B6_
FN:134,_RNCNvMNtCsh06HHTBymxI_19chess_vector_engine11persistenceNtB4_8Database13save_positions0_0B6_
FN:138,_RNCNvMNtCsh06HHTBymxI_19chess_vector_engine11persistenceNtB4_8Database13save_positions1_0B6_
FN:132,_RNCNvMNtCsh06HHTBymxI_19chess_vector_engine11persistenceNtB4_8Database13save_positions_0B6_
FN:274,_RNCNvMNtCsh06HHTBymxI_19chess_vector_engine11persistenceNtB4_8Database15load_lsh_config0B6_
FN:245,_RNCNvMNtCsh06HHTBymxI_19chess_vector_engine11persistenceNtB4_8Database15save_lsh_config0B6_
FN:249,_RNCNvMNtCsh06HHTBymxI_19chess_vector_engine11persistenceNtB4_8Database15save_lsh_configs_0B6_
FN:331,_RNCNvMNtCsh06HHTBymxI_19chess_vector_engine11persistenceNtB4_8Database18get_position_count0B6_
FNDA:0,_RINvMNtCsh06HHTBymxI_19chess_vector_engine11persistenceNtB3_8Database3newpEB5_
FNDA:0,_RNCNCNvMNtCsh06HHTBymxI_19chess_vector_engine11persistenceNtB6_8Database18get_position_by_id00B8_
FNDA:0,_RNCNCNvMNtCsh06HHTBymxI_19chess_vector_engine11persistenceNtB6_8Database18get_position_by_id0s_0B8_
FNDA:0,_RNCNCNvMNtCsh06HHTBymxI_19chess_vector_engine11persistenceNtB6_8Database18load_all_positions00B8_
FNDA:0,_RNCNCNvMNtCsh06HHTBymxI_19chess_vector_engine11persistenceNtB6_8Database18load_all_positions0s_0B8_
FNDA:0,_RNCNCNvMNtCsh06HHTBymxI_19chess_vector_engine11persistenceNtB6_8Database20load_positions_batch00B8_
FNDA:0,_RNCNCNvMNtCsh06HHTBymxI_19chess_vector_engine11persistenceNtB6_8Database20load_positions_batch0s_0B8_
FNDA:0,_RNCNvMNtCsh06HHTBymxI_19chess_vector_engine11persistenceNtB4_8Database16load_lsh_buckets0B6_
FNDA:0,_RNCNvMNtCsh06HHTBymxI_19chess_vector_engine11persistenceNtB4_8Database18get_position_by_id0B6_
FNDA:0,_RNCNvMNtCsh06HHTBymxI_19chess_vector_engine11persistenceNtB4_8Database18load_all_positions0B6_
FNDA:0,_RNCNvMNtCsh06HHTBymxI_19chess_vector_engine11persistenceNtB4_8Database19load_manifold_model0B6_
FNDA:0,_RNCNvMNtCsh06HHTBymxI_19chess_vector_engine11persistenceNtB4_8Database19save_manifold_model0B6_
FNDA:0,_RNCNvMNtCsh06HHTBymxI_19chess_vector_engine11persistenceNtB4_8Database20load_positions_batch0B6_
FNDA:0,_RNCNvMNtCsh06HHTBymxI_19chess_vector_engine11persistenceNtB4_8Database20save_positions_batch0B6_
FNDA:0,_RNCNvMNtCsh06HHTBymxI_19chess_vector_engine11persistenceNtB4_8Database20save_positions_batchs0_0B6_
FNDA:0,_RNCNvMNtCsh06HHTBymxI_19chess_vector_engine11persistenceNtB4_8Database20save_positions_batchs1_0B6_
FNDA:0,_RNCNvMNtCsh06HHTBymxI_19chess_vector_engine11persistenceNtB4_8Database20save_positions_batchs_0B6_
FNDA:0,_RNCNvMNtCsh06HHTBymxI_19chess_vector_engine11persistenceNtB4_8Database24get_total_position_count0B6_
FNDA:0,_RNvMNtCsh06HHTBymxI_19chess_vector_engine11persistenceNtB2_8Database15save_lsh_bucket
FNDA:0,_RNvMNtCsh06HHTBymxI_19chess_vector_engine11persistenceNtB2_8Database16load_lsh_buckets
FNDA:0,_RNvMNtCsh06HHTBymxI_19chess_vector_engine11persistenceNtB2_8Database17clear_lsh_buckets
FNDA:0,_RNvMNtCsh06HHTBymxI_19chess_vector_engine11persistenceNtB2_8Database18get_position_by_id
FNDA:0,_RNvMNtCsh06HHTBymxI_19chess_vector_engine11persistenceNtB2_8Database18load_all_positions
FNDA:0,_RNvMNtCsh06HHTBymxI_19chess_vector_engine11persistenceNtB2_8Database19load_manifold_model
FNDA:0,_RNvMNtCsh06HHTBymxI_19chess_vector_engine11persistenceNtB2_8Database19save_manifold_model
FNDA:0,_RNvMNtCsh06HHTBymxI_19chess_vector_engine11persistenceNtB2_8Database20load_positions_batch
FNDA:0,_RNvMNtCsh06HHTBymxI_19chess_vector_engine11persistenceNtB2_8Database20save_positions_batch
FNDA:0,_RNvMNtCsh06HHTBymxI_19chess_vector_engine11persistenceNtB2_8Database24get_total_position_count
FNDA:0,_RNvMNtCsh06HHTBymxI_19chess_vector_engine11persistenceNtB2_8Database6vacuum
FNDA:1,_RNvNtNtCsh06HHTBymxI_19chess_vector_engine11persistence5testss_21test_position_storage
FNDA:1,_RNvNtNtCsh06HHTBymxI_19chess_vector_engine11persistence5testss_22test_database_creation
FNDA:1,_RNvNtNtCsh06HHTBymxI_19chess_vector_engine11persistence5testss_23test_lsh_config_storage
FNDA:3,_RNvMNtCsh06HHTBymxI_19chess_vector_engine11persistenceNtB2_8Database13create_tables
FNDA:1,_RNvMNtCsh06HHTBymxI_19chess_vector_engine11persistenceNtB2_8Database13load_position
FNDA:1,_RNvMNtCsh06HHTBymxI_19chess_vector_engine11persistenceNtB2_8Database13save_position
FNDA:1,_RNvMNtCsh06HHTBymxI_19chess_vector_engine11persistenceNtB2_8Database15load_lsh_config
FNDA:1,_RNvMNtCsh06HHTBymxI_19chess_vector_engine11persistenceNtB2_8Database15save_lsh_config
FNDA:1,_RNvMNtCsh06HHTBymxI_19chess_vector_engine11persistenceNtB2_8Database18get_position_count
FNDA:3,_RNvMNtCsh06HHTBymxI_19chess_vector_engine11persistenceNtB2_8Database9in_memory
FNDA:0,_RNCNCNvMNtCsh06HHTBymxI_19chess_vector_engine11persistenceNtB6_8Database13load_position00B8_
FNDA:0,_RNCNCNvMNtCsh06HHTBymxI_19chess_vector_engine11persistenceNtB6_8Database13load_position0s_0B8_
FNDA:0,_RNCNCNvMNtCsh06HHTBymxI_19chess_vector_engine11persistenceNtB6_8Database15load_lsh_config00B8_
FNDA:1,_RNCNvMNtCsh06HHTBymxI_19chess_vector_engine11persistenceNtB4_8Database13load_position0B6_
FNDA:0,_RNCNvMNtCsh06HHTBymxI_19chess_vector_engine11persistenceNtB4_8Database13save_position0B6_
FNDA:0,_RNCNvMNtCsh06HHTBymxI_19chess_vector_engine11persistenceNtB4_8Database13save_positions0_0B6_
FNDA:0,_RNCNvMNtCsh06HHTBymxI_19chess_vector_engine11persistenceNtB4_8Database13save_positions1_0B6_
FNDA:1,_RNCNvMNtCsh06HHTBymxI_19chess_vector_engine11persistenceNtB4_8Database13save_positions_0B6_
FNDA:1,_RNCNvMNtCsh06HHTBymxI_19chess_vector_engine11persistenceNtB4_8Database15load_lsh_config0B6_
FNDA:0,_RNCNvMNtCsh06HHTBymxI_19chess_vector_engine11persistenceNtB4_8Database15save_lsh_config0B6_
FNDA:0,_RNCNvMNtCsh06HHTBymxI_19chess_vector_engine11persistenceNtB4_8Database15save_lsh_configs_0B6_
FNDA:1,_RNCNvMNtCsh06HHTBymxI_19chess_vector_engine11persistenceNtB4_8Database18get_position_count0B6_
FNF:51
FNH:14
DA:33,0
DA:34,0
DA:37,0
DA:39,0
DA:40,0
DA:41,0
DA:42,0
DA:44,3
DA:45,3
DA:46,3
DA:47,3
DA:48,3
DA:49,3
DA:51,3
DA:52,3
DA:53,3
DA:54,3
DA:55,3
DA:56,3
DA:57,3
DA:58,3
DA:59,3
DA:60,3
DA:61,3
DA:62,3
DA:63,3
DA:64,3
DA:67,3
DA:68,3
DA:69,3
DA:70,3
DA:71,3
DA:72,3
DA:73,3
DA:74,3
DA:75,3
DA:76,3
DA:77,3
DA:78,3
DA:81,3
DA:82,3
DA:83,3
DA:84,3
DA:85,3
DA:86,3
DA:87,3
DA:88,3
DA:89,3
DA:90,3
DA:93,3
DA:94,3
DA:95,3
DA:96,3
DA:97,3
DA:98,3
DA:99,3
DA:100,3
DA:101,3
DA:102,3
DA:103,3
DA:104,3
DA:107,3
DA:108,3
DA:109,3
DA:110,3
DA:112,3
DA:113,3
DA:114,3
DA:115,3
DA:117,3
DA:118,3
DA:119,3
DA:120,3
DA:122,3
DA:123,3
DA:125,1
DA:126,1
DA:127,1
DA:129,1
DA:130,1
DA:131,1
DA:132,1
DA:133,1
DA:134,1
DA:136,1
DA:137,1
DA:138,1
DA:139,1
DA:140,1
DA:141,1
DA:142,1
DA:143,1
DA:144,1
DA:145,1
DA:146,1
DA:147,1
DA:148,1
DA:149,1
DA:150,1
DA:151,1
DA:152,1
DA:154,1
DA:155,1
DA:157,1
DA:158,1
DA:159,1
DA:160,1
DA:161,1
DA:163,1
DA:164,1
DA:165,1
DA:166,0
DA:167,0
DA:168,0
DA:169,0
DA:170,0
DA:171,1
DA:173,1
DA:174,1
DA:175,1
DA:176,0
DA:177,0
DA:178,0
DA:179,0
DA:180,0
DA:181,1
DA:183,0
DA:187,1
DA:188,1
DA:189,1
DA:190,1
DA:191,1
DA:193,1
DA:195,1
DA:196,1
DA:197,0
DA:198,0
DA:200,1
DA:202,0
DA:203,0
DA:204,0
DA:205,0
DA:206,0
DA:208,0
DA:209,0
DA:210,0
DA:211,0
DA:212,0
DA:213,0
DA:214,0
DA:215,0
DA:216,0
DA:218,0
DA:219,0
DA:220,0
DA:221,0
DA:222,0
DA:223,0
DA:224,0
DA:225,0
DA:226,0
DA:228,0
DA:232,0
DA:233,0
DA:234,0
DA:235,0
DA:236,0
DA:238,0
DA:240,0
DA:241,0
DA:243,1
DA:244,1
DA:245,1
DA:247,1
DA:248,1
DA:249,1
DA:250,1
DA:251,1
DA:252,1
DA:253,1
DA:254,1
DA:255,1
DA:256,1
DA:257,1
DA:258,1
DA:259,1
DA:260,1
DA:261,1
DA:262,1
DA:263,1
DA:265,1
DA:266,1
DA:268,1
DA:269,1
DA:270,1
DA:271,1
DA:272,1
DA:274,1
DA:275,1
DA:276,1
DA:277,1
DA:278,0
DA:279,0
DA:280,0
DA:281,0
DA:282,0
DA:283,1
DA:286,1
DA:287,1
DA:288,1
DA:289,1
DA:291,1
DA:293,1
DA:294,1
DA:295,0
DA:296,0
DA:298,1
DA:300,0
DA:301,0
DA:302,0
DA:303,0
DA:304,0
DA:305,0
DA:306,0
DA:307,0
DA:308,0
DA:309,0
DA:310,0
DA:311,0
DA:312,0
DA:314,0
DA:315,0
DA:316,0
DA:317,0
DA:319,0
DA:321,0
DA:322,0
DA:324,0
DA:325,0
DA:326,0
DA:327,0
DA:329,1
DA:330,1
DA:331,1
DA:332,1
DA:333,1
DA:335,0
DA:336,0
DA:337,0
DA:338,0
DA:340,0
DA:341,0
DA:342,0
DA:343,0
DA:344,0
DA:345,0
DA:346,0
DA:347,0
DA:349,0
DA:350,0
DA:351,0
DA:352,0
DA:353,0
DA:354,0
DA:355,0
DA:356,0
DA:357,0
DA:358,0
DA:359,0
DA:360,0
DA:361,0
DA:362,0
DA:363,0
DA:364,0
DA:365,0
DA:366,0
DA:367,0
DA:369,0
DA:370,0
DA:371,0
DA:372,0
DA:373,0
DA:375,0
DA:376,0
DA:377,0
DA:378,0
DA:379,0
DA:380,0
DA:382,0
DA:384,0
DA:385,0
DA:386,0
DA:387,0
DA:389,0
DA:391,0
DA:392,0
DA:393,0
DA:394,0
DA:395,0
DA:397,0
DA:398,0
DA:399,0
DA:400,0
DA:401,0
DA:402,0
DA:403,0
DA:404,0
DA:405,0
DA:407,0
DA:408,0
DA:409,0
DA:410,0
DA:411,0
DA:412,0
DA:413,0
DA:414,0
DA:415,0
DA:417,0
DA:421,0
DA:422,0
DA:423,0
DA:424,0
DA:425,0
DA:427,0
DA:429,0
DA:430,0
DA:431,0
DA:432,0
DA:434,0
DA:437,0
DA:438,0
DA:439,0
DA:440,0
DA:442,0
DA:445,0
DA:446,0
DA:447,0
DA:448,0
DA:450,0
DA:451,0
DA:452,0
DA:453,0
DA:455,0
DA:456,0
DA:457,0
DA:459,0
DA:460,0
DA:461,0
DA:462,0
DA:463,0
DA:464,0
DA:466,0
DA:467,0
DA:468,0
DA:469,0
DA:470,0
DA:471,0
DA:472,0
DA:473,0
DA:477,0
DA:478,0
DA:479,0
DA:482,0
DA:483,0
DA:484,0
DA:485,0
DA:486,0
DA:487,0
DA:488,0
DA:489,0
DA:490,0
DA:492,0
DA:493,0
DA:494,0
DA:495,0
DA:496,0
DA:497,0
DA:498,0
DA:499,0
DA:500,0
DA:502,0
DA:503,0
DA:504,0
DA:505,0
DA:506,0
DA:507,0
DA:508,0
DA:509,0
DA:510,0
DA:512,0
DA:516,0
DA:517,0
DA:518,0
DA:519,0
DA:520,0
DA:522,0
DA:524,0
DA:525,0
DA:528,0
DA:529,0
DA:530,0
DA:531,0
DA:532,0
DA:540,1
DA:541,1
DA:542,1
DA:543,1
DA:546,1
DA:547,1
DA:548,1
DA:549,1
DA:550,1
DA:551,1
DA:552,1
DA:553,1
DA:554,1
DA:555,1
DA:556,1
DA:557,1
DA:558,1
DA:560,1
DA:561,1
DA:562,1
DA:563,1
DA:564,1
DA:565,1
DA:568,1
DA:569,1
DA:570,1
DA:571,1
DA:572,1
DA:573,1
DA:574,1
DA:575,1
DA:576,1
DA:577,1
DA:578,1
DA:579,1
DA:580,1
DA:581,1
DA:582,1
DA:583,1
DA:584,1
DA:585,1
DA:586,1
DA:587,1
DA:588,1
BRF:0
BRH:0
LF:491
LH:213
end_of_record
SF:/home/justin/Projects/chess-vector-engine/src/position_encoder.rs
FN:548,_RNCNCNvMNtCsh06HHTBymxI_19chess_vector_engine16position_encoderNtB6_15PositionEncoder26pairwise_similarity_matrix00B8_
FN:567,_RNCNCNvMNtCsh06HHTBymxI_19chess_vector_engine16position_encoderNtB6_15PositionEncoder26pairwise_similarity_matrixs_00B8_
FN:513,_RNCNvMNtCsh06HHTBymxI_19chess_vector_engine16position_encoderNtB4_15PositionEncoder12encode_batch0B6_
FN:516,_RNCNvMNtCsh06HHTBymxI_19chess_vector_engine16position_encoderNtB4_15PositionEncoder12encode_batchs_0B6_
FN:526,_RNCNvMNtCsh06HHTBymxI_19chess_vector_engine16position_encoderNtB4_15PositionEncoder16batch_similarity0B6_
FN:532,_RNCNvMNtCsh06HHTBymxI_19chess_vector_engine16position_encoderNtB4_15PositionEncoder16batch_similaritys_0B6_
FN:544,_RNCNvMNtCsh06HHTBymxI_19chess_vector_engine16position_encoderNtB4_15PositionEncoder26pairwise_similarity_matrix0B6_
FN:563,_RNCNvMNtCsh06HHTBymxI_19chess_vector_engine16position_encoderNtB4_15PositionEncoder26pairwise_similarity_matrixs_0B6_
FN:506,_RNCNvMNtCsh06HHTBymxI_19chess_vector_engine16position_encoderNtB4_15PositionEncoder8distance0B6_
FN:510,_RNvMNtCsh06HHTBymxI_19chess_vector_engine16position_encoderNtB2_15PositionEncoder12encode_batch
FN:521,_RNvMNtCsh06HHTBymxI_19chess_vector_engine16position_encoderNtB2_15PositionEncoder16batch_similarity
FN:538,_RNvMNtCsh06HHTBymxI_19chess_vector_engine16position_encoderNtB2_15PositionEncoder26pairwise_similarity_matrix
FN:505,_RNvMNtCsh06HHTBymxI_19chess_vector_engine16position_encoderNtB2_15PositionEncoder8distance
FN:588,_RNvNtNtCsh06HHTBymxI_19chess_vector_engine16position_encoder5testss_29test_encode_starting_position
FN:611,_RNvNtNtCsh06HHTBymxI_19chess_vector_engine16position_encoder5testss_35test_similarity_different_positions
FN:600,_RNvNtNtCsh06HHTBymxI_19chess_vector_engine16position_encoder5testss_35test_similarity_identical_positions
FN:596,_RNCNvNtNtCsh06HHTBymxI_19chess_vector_engine16position_encoder5testss_29test_encode_starting_position0B7_
FN:491,_RNvMNtCsh06HHTBymxI_19chess_vector_engine16position_encoderNtB2_15PositionEncoder10similarity
FN:18,_RNvMNtCsh06HHTBymxI_19chess_vector_engine16position_encoderNtB2_15PositionEncoder11vector_size
FN:126,_RNvMNtCsh06HHTBymxI_19chess_vector_engine16position_encoderNtB2_15PositionEncoder17encode_game_state
FN:261,_RNvMNtCsh06HHTBymxI_19chess_vector_engine16position_encoderNtB2_15PositionEncoder18calculate_mobility
FN:222,_RNvMNtCsh06HHTBymxI_19chess_vector_engine16position_encoderNtB2_15PositionEncoder18distance_to_center
FN:397,_RNvMNtCsh06HHTBymxI_19chess_vector_engine16position_encoderNtB2_15PositionEncoder21encode_center_control
FN:276,_RNvMNtCsh06HHTBymxI_19chess_vector_engine16position_encoderNtB2_15PositionEncoder21encode_pawn_structure
FN:54,_RNvMNtCsh06HHTBymxI_19chess_vector_engine16position_encoderNtB2_15PositionEncoder22encode_piece_positions
FN:168,_RNvMNtCsh06HHTBymxI_19chess_vector_engine16position_encoderNtB2_15PositionEncoder23encode_material_balance
FN:232,_RNvMNtCsh06HHTBymxI_19chess_vector_engine16position_encoderNtB2_15PositionEncoder24count_surrounding_pieces
FN:345,_RNvMNtCsh06HHTBymxI_19chess_vector_engine16position_encoderNtB2_15PositionEncoder24encode_tactical_patterns
FN:458,_RNvMNtCsh06HHTBymxI_19chess_vector_engine16position_encoderNtB2_15PositionEncoder25encode_piece_coordination
FN:84,_RNvMNtCsh06HHTBymxI_19chess_vector_engine16position_encoderNtB2_15PositionEncoder25encode_piece_interactions
FN:189,_RNvMNtCsh06HHTBymxI_19chess_vector_engine16position_encoderNtB2_15PositionEncoder26encode_positional_features
FN:13,_RNvMNtCsh06HHTBymxI_19chess_vector_engine16position_encoderNtB2_15PositionEncoder3new
FN:23,_RNvMNtCsh06HHTBymxI_19chess_vector_engine16position_encoderNtB2_15PositionEncoder6encode
FNDA:0,_RNCNCNvMNtCsh06HHTBymxI_19chess_vector_engine16position_encoderNtB6_15PositionEncoder26pairwise_similarity_matrix00B8_
FNDA:0,_RNCNCNvMNtCsh06HHTBymxI_19chess_vector_engine16position_encoderNtB6_15PositionEncoder26pairwise_similarity_matrixs_00B8_
FNDA:0,_RNCNvMNtCsh06HHTBymxI_19chess_vector_engine16position_encoderNtB4_15PositionEncoder12encode_batch0B6_
FNDA:0,_RNCNvMNtCsh06HHTBymxI_19chess_vector_engine16position_encoderNtB4_15PositionEncoder12encode_batchs_0B6_
FNDA:0,_RNCNvMNtCsh06HHTBymxI_19chess_vector_engine16position_encoderNtB4_15PositionEncoder16batch_similarity0B6_
FNDA:0,_RNCNvMNtCsh06HHTBymxI_19chess_vector_engine16position_encoderNtB4_15PositionEncoder16batch_similaritys_0B6_
FNDA:0,_RNCNvMNtCsh06HHTBymxI_19chess_vector_engine16position_encoderNtB4_15PositionEncoder26pairwise_similarity_matrix0B6_
FNDA:0,_RNCNvMNtCsh06HHTBymxI_19chess_vector_engine16position_encoderNtB4_15PositionEncoder26pairwise_similarity_matrixs_0B6_
FNDA:0,_RNCNvMNtCsh06HHTBymxI_19chess_vector_engine16position_encoderNtB4_15PositionEncoder8distance0B6_
FNDA:0,_RNvMNtCsh06HHTBymxI_19chess_vector_engine16position_encoderNtB2_15PositionEncoder12encode_batch
FNDA:0,_RNvMNtCsh06HHTBymxI_19chess_vector_engine16position_encoderNtB2_15PositionEncoder16batch_similarity
FNDA:0,_RNvMNtCsh06HHTBymxI_19chess_vector_engine16position_encoderNtB2_15PositionEncoder26pairwise_similarity_matrix
FNDA:0,_RNvMNtCsh06HHTBymxI_19chess_vector_engine16position_encoderNtB2_15PositionEncoder8distance
FNDA:1,_RNvNtNtCsh06HHTBymxI_19chess_vector_engine16position_encoder5testss_29test_encode_starting_position
FNDA:1,_RNvNtNtCsh06HHTBymxI_19chess_vector_engine16position_encoder5testss_35test_similarity_different_positions
FNDA:1,_RNvNtNtCsh06HHTBymxI_19chess_vector_engine16position_encoder5testss_35test_similarity_identical_positions
FNDA:4,_RNCNvNtNtCsh06HHTBymxI_19chess_vector_engine16position_encoder5testss_29test_encode_starting_position0B7_
FNDA:27,_RNvMNtCsh06HHTBymxI_19chess_vector_engine16position_encoderNtB2_15PositionEncoder10similarity
FNDA:9,_RNvMNtCsh06HHTBymxI_19chess_vector_engine16position_encoderNtB2_15PositionEncoder11vector_size
FNDA:1358,_RNvMNtCsh06HHTBymxI_19chess_vector_engine16position_encoderNtB2_15PositionEncoder17encode_game_state
FNDA:2716,_RNvMNtCsh06HHTBymxI_19chess_vector_engine16position_encoderNtB2_15PositionEncoder18calculate_mobility
FNDA:2716,_RNvMNtCsh06HHTBymxI_19chess_vector_engine16position_encoderNtB2_15PositionEncoder18distance_to_center
FNDA:4074,_RNvMNtCsh06HHTBymxI_19chess_vector_engine16position_encoderNtB2_15PositionEncoder21encode_center_control
FNDA:1358,_RNvMNtCsh06HHTBymxI_19chess_vector_engine16position_encoderNtB2_15PositionEncoder21encode_pawn_structure
FNDA:1358,_RNvMNtCsh06HHTBymxI_19chess_vector_engine16position_encoderNtB2_15PositionEncoder22encode_piece_positions
FNDA:1358,_RNvMNtCsh06HHTBymxI_19chess_vector_engine16position_encoderNtB2_15PositionEncoder23encode_material_balance
FNDA:2716,_RNvMNtCsh06HHTBymxI_19chess_vector_engine16position_encoderNtB2_15PositionEncoder24count_surrounding_pieces
FNDA:2716,_RNvMNtCsh06HHTBymxI_19chess_vector_engine16position_encoderNtB2_15PositionEncoder24encode_tactical_patterns
FNDA:4074,_RNvMNtCsh06HHTBymxI_19chess_vector_engine16position_encoderNtB2_15PositionEncoder25encode_piece_coordination
FNDA:1358,_RNvMNtCsh06HHTBymxI_19chess_vector_engine16position_encoderNtB2_15PositionEncoder25encode_piece_interactions
FNDA:1358,_RNvMNtCsh06HHTBymxI_19chess_vector_engine16position_encoderNtB2_15PositionEncoder26encode_positional_features
FNDA:42,_RNvMNtCsh06HHTBymxI_19chess_vector_engine16position_encoderNtB2_15PositionEncoder3new
FNDA:1358,_RNvMNtCsh06HHTBymxI_19chess_vector_engine16position_encoderNtB2_15PositionEncoder6encode
FNF:33
FNH:20
DA:13,42
DA:14,42
DA:15,42
DA:18,9
DA:19,9
DA:20,9
DA:23,1358
DA:24,1358
DA:25,1358
DA:26,1358
DA:27,1358
DA:28,1358
DA:29,1358
DA:30,1358
DA:31,1358
DA:32,1358
DA:33,1358
DA:34,1358
DA:35,1358
DA:36,1358
DA:37,1358
DA:38,1358
DA:39,1358
DA:40,1358
DA:41,1358
DA:42,1358
DA:43,1358
DA:44,1358
DA:45,1358
DA:46,1358
DA:47,1358
DA:48,1358
DA:49,1358
DA:50,1358
DA:51,1358
DA:54,1358
DA:57,88270
DA:59,86912
DA:61,86912
DA:62,43456
DA:63,43456
DA:64,21728
DA:65,5432
DA:66,5432
DA:67,5432
DA:68,2716
DA:69,2716
DA:72,43456
DA:73,43456
DA:74,43456
DA:76,86912
DA:80,1358
DA:81,1358
DA:84,1358
DA:85,1358
DA:86,1358
DA:87,1358
DA:90,88270
DA:91,86912
DA:92,43456
DA:93,43456
DA:94,21728
DA:95,5432
DA:96,5432
DA:97,5432
DA:98,2716
DA:99,2716
DA:103,43456
DA:104,21728
DA:105,5432
DA:106,5432
DA:107,5432
DA:108,2716
DA:109,2716
DA:112,43456
DA:113,21728
DA:114,21728
DA:115,21728
DA:116,21728
DA:117,43456
DA:121,1358
DA:122,1358
DA:123,1358
DA:126,1358
DA:127,1358
DA:128,1358
DA:129,1358
DA:131,0
DA:133,1358
DA:134,1358
DA:136,0
DA:138,1358
DA:139,1358
DA:141,0
DA:143,1358
DA:144,1358
DA:146,0
DA:150,1358
DA:151,0
DA:153,1358
DA:157,1358
DA:158,1346
DA:160,12
DA:164,1358
DA:165,1358
DA:168,1358
DA:169,1358
DA:170,1358
DA:171,1358
DA:172,1358
DA:173,1358
DA:174,1358
DA:175,1358
DA:176,1358
DA:178,9506
DA:179,8148
DA:180,8148
DA:181,8148
DA:182,8148
DA:183,8148
DA:184,8148
DA:185,8148
DA:186,1358
DA:189,1358
DA:191,2716
DA:192,2716
DA:193,2716
DA:194,2716
DA:195,2716
DA:196,2716
DA:197,2716
DA:198,2716
DA:199,2716
DA:200,2716
DA:203,2716
DA:204,2716
DA:205,2716
DA:206,2716
DA:209,1358
DA:210,1358
DA:211,1358
DA:212,1358
DA:213,1358
DA:214,1358
DA:215,1358
DA:216,1358
DA:217,1358
DA:218,1358
DA:219,1358
DA:222,2716
DA:223,2716
DA:224,2716
DA:225,2716
DA:226,2716
DA:227,2716
DA:228,2716
DA:229,2716
DA:232,2716
DA:233,2716
DA:234,2716
DA:235,2716
DA:237,10864
DA:238,32592
DA:239,24444
DA:240,2716
DA:241,21728
DA:242,21728
DA:243,21728
DA:244,21728
DA:245,21728
DA:246,21728
DA:247,13580
DA:248,13580
DA:249,13580
DA:250,13580
DA:251,13580
DA:252,13569
DA:253,13569
DA:254,8148
DA:257,2716
DA:258,2716
DA:261,2716
DA:262,2716
DA:263,2716
DA:264,2716
DA:266,46172
DA:267,43456
DA:268,43456
DA:269,43456
DA:270,43456
DA:272,2716
DA:273,2716
DA:276,1358
DA:277,2716
DA:278,2716
DA:279,2716
DA:280,2716
DA:281,2716
DA:282,24444
DA:283,21728
DA:284,195552
DA:285,173824
DA:286,173824
DA:287,173824
DA:288,173824
DA:289,173824
DA:290,21728
DA:291,152096
DA:293,21728
DA:294,0
DA:295,21728
DA:297,2716
DA:298,2716
DA:299,2716
DA:300,2716
DA:301,24444
DA:302,21728
DA:303,97795
DA:304,97795
DA:305,97795
DA:306,97795
DA:307,97795
DA:308,97795
DA:309,21728
DA:310,21728
DA:311,76067
DA:314,21728
DA:316,21728
DA:317,24444
DA:318,24444
DA:319,97795
DA:320,97795
DA:321,97795
DA:322,97795
DA:323,97795
DA:324,97795
DA:325,21728
DA:326,21728
DA:327,76067
DA:329,2716
DA:330,24444
DA:331,21728
DA:332,2716
DA:335,21728
DA:336,0
DA:337,21728
DA:338,0
DA:340,2716
DA:342,1358
DA:345,2716
DA:347,5432
DA:348,5432
DA:349,2716
DA:351,2716
DA:355,5432
DA:356,5432
DA:357,5432
DA:358,5432
DA:359,5432
DA:360,5432
DA:361,353080
DA:362,347648
DA:363,16296
DA:364,16296
DA:365,0
DA:366,0
DA:367,16296
DA:368,331352
DA:372,5432
DA:373,5432
DA:374,353080
DA:375,347648
DA:376,16296
DA:377,16296
DA:378,16296
DA:379,16296
DA:380,16296
DA:381,16296
DA:382,16296
DA:383,0
DA:384,16296
DA:385,331352
DA:388,5432
DA:392,2716
DA:393,2716
DA:394,2716
DA:397,4074
DA:398,4074
DA:399,4074
DA:400,4074
DA:401,4074
DA:402,4074
DA:403,4074
DA:404,4074
DA:406,8148
DA:407,8148
DA:409,40740
DA:411,32592
DA:412,66
DA:413,33
DA:414,33
DA:415,32526
DA:418,32592
DA:419,2118480
DA:420,2085888
DA:421,521472
DA:422,521472
DA:424,260736
DA:425,260736
DA:426,260736
DA:427,260736
DA:428,260736
DA:429,260736
DA:430,260736
DA:433,65184
DA:434,65184
DA:435,65184
DA:436,65184
DA:437,65184
DA:438,65184
DA:439,65184
DA:440,65178
DA:442,195552
DA:445,521472
DA:446,51
DA:447,521421
DA:448,0
DA:449,1564416
DA:453,8148
DA:455,4074
DA:458,4074
DA:459,8148
DA:460,8148
DA:461,8148
DA:462,8148
DA:463,8148
DA:464,529620
DA:465,521472
DA:466,8473920
DA:467,8343552
DA:468,2085888
DA:471,1955520
DA:472,1955520
DA:473,1955520
DA:474,1955520
DA:475,1955520
DA:476,1955520
DA:477,1955520
DA:478,1955520
DA:479,977424
DA:480,978096
DA:481,6388032
DA:483,391104
DA:486,8148
DA:488,4074
DA:491,27
DA:492,27
DA:493,27
DA:494,27
DA:495,27
DA:496,27
DA:497,27
DA:498,0
DA:500,27
DA:502,27
DA:505,0
DA:506,0
DA:507,0
DA:510,0
DA:511,0
DA:513,0
DA:516,0
DA:518,0
DA:521,0
DA:522,0
DA:524,0
DA:525,0
DA:526,0
DA:527,0
DA:530,0
DA:531,0
DA:532,0
DA:533,0
DA:535,0
DA:538,0
DA:539,0
DA:541,0
DA:542,0
DA:543,0
DA:544,0
DA:545,0
DA:546,0
DA:547,0
DA:548,0
DA:549,0
DA:550,0
DA:552,0
DA:554,0
DA:555,0
DA:556,0
DA:557,0
DA:560,0
DA:561,0
DA:562,0
DA:563,0
DA:564,0
DA:565,0
DA:566,0
DA:567,0
DA:568,0
DA:569,0
DA:571,0
DA:573,0
DA:574,0
DA:575,0
DA:576,0
DA:578,0
DA:588,1
DA:589,1
DA:590,1
DA:591,1
DA:592,1
DA:593,1
DA:596,4
DA:597,1
DA:600,1
DA:601,1
DA:602,1
DA:603,1
DA:604,1
DA:605,1
DA:606,1
DA:607,1
DA:608,1
DA:611,1
DA:612,1
DA:613,1
DA:614,1
DA:615,1
DA:616,1
DA:617,1
DA:618,1
DA:619,1
DA:620,1
DA:621,1
DA:622,1
DA:623,1
BRF:0
BRH:0
LF:461
LH:383
end_of_record
SF:/home/justin/Projects/chess-vector-engine/src/similarity_search.rs
FN:328,_RNCNvMs2_NtCsh06HHTBymxI_19chess_vector_engine17similarity_searchNtB7_16SimilaritySearch18brute_force_search0B9_
FN:346,_RNCNvMs2_NtCsh06HHTBymxI_19chess_vector_engine17similarity_searchNtB7_16SimilaritySearch18brute_force_searchs0_0B9_
FN:348,_RNCNvMs2_NtCsh06HHTBymxI_19chess_vector_engine17similarity_searchNtB7_16SimilaritySearch18brute_force_searchs1_0B9_
FN:337,_RNCNvMs2_NtCsh06HHTBymxI_19chess_vector_engine17similarity_searchNtB7_16SimilaritySearch18brute_force_searchs_0B9_
FN:522,_RNCNvMs2_NtCsh06HHTBymxI_19chess_vector_engine17similarity_searchNtB7_16SimilaritySearch18euclidean_distance0B9_
FN:534,_RNCNvMs2_NtCsh06HHTBymxI_19chess_vector_engine17similarity_searchNtB7_16SimilaritySearch18search_by_distance0B9_
FN:541,_RNCNvMs2_NtCsh06HHTBymxI_19chess_vector_engine17similarity_searchNtB7_16SimilaritySearch18search_by_distances_0B9_
FN:270,_RNCNvMs2_NtCsh06HHTBymxI_19chess_vector_engine17similarity_searchNtB7_16SimilaritySearch19parallel_search_ref0B9_
FN:284,_RNCNvMs2_NtCsh06HHTBymxI_19chess_vector_engine17similarity_searchNtB7_16SimilaritySearch19parallel_search_refs0_0B9_
FN:278,_RNCNvMs2_NtCsh06HHTBymxI_19chess_vector_engine17similarity_searchNtB7_16SimilaritySearch19parallel_search_refs_0B9_
FN:190,_RNCNvMs2_NtCsh06HHTBymxI_19chess_vector_engine17similarity_searchNtB7_16SimilaritySearch21sequential_search_ref0B9_
FN:203,_RNCNvMs2_NtCsh06HHTBymxI_19chess_vector_engine17similarity_searchNtB7_16SimilaritySearch21sequential_search_refs0_0B9_
FN:197,_RNCNvMs2_NtCsh06HHTBymxI_19chess_vector_engine17similarity_searchNtB7_16SimilaritySearch21sequential_search_refs_0B9_
FN:90,_RNvMs2_NtCsh06HHTBymxI_19chess_vector_engine17similarity_searchNtB5_16SimilaritySearch10search_ref
FN:319,_RNvMs2_NtCsh06HHTBymxI_19chess_vector_engine17similarity_searchNtB5_16SimilaritySearch18brute_force_search
FN:521,_RNvMs2_NtCsh06HHTBymxI_19chess_vector_engine17similarity_searchNtB5_16SimilaritySearch18euclidean_distance
FN:526,_RNvMs2_NtCsh06HHTBymxI_19chess_vector_engine17similarity_searchNtB5_16SimilaritySearch18search_by_distance
FN:252,_RNvMs2_NtCsh06HHTBymxI_19chess_vector_engine17similarity_searchNtB5_16SimilaritySearch19parallel_search_ref
FN:172,_RNvMs2_NtCsh06HHTBymxI_19chess_vector_engine17similarity_searchNtB5_16SimilaritySearch21sequential_search_ref
FN:559,_RNvMs2_NtCsh06HHTBymxI_19chess_vector_engine17similarity_searchNtB5_16SimilaritySearch5clear
FN:37,_RNvXNtCsh06HHTBymxI_19chess_vector_engine17similarity_searchNtB2_12SearchResultNtNtCs9sjCchOt1K7_4core3cmp9PartialEq2eq
FN:52,_RNvXs1_NtCsh06HHTBymxI_19chess_vector_engine17similarity_searchNtB5_12SearchResultNtNtCs9sjCchOt1K7_4core3cmp3Ord3cmp
FN:672,_RNvNtNtCsh06HHTBymxI_19chess_vector_engine17similarity_search5testss_15test_statistics
FN:633,_RNvNtNtCsh06HHTBymxI_19chess_vector_engine17similarity_search5testss_19test_add_and_search
FN:657,_RNvNtNtCsh06HHTBymxI_19chess_vector_engine17similarity_search5testss_22test_cosine_similarity
FN:626,_RNvNtNtCsh06HHTBymxI_19chess_vector_engine17similarity_search5testss_31test_similarity_search_creation
FN:564,_RNvMs2_NtCsh06HHTBymxI_19chess_vector_engine17similarity_searchNtB5_16SimilaritySearch10statistics
FN:76,_RNvMs2_NtCsh06HHTBymxI_19chess_vector_engine17similarity_searchNtB5_16SimilaritySearch12add_position
FN:604,_RNvMs2_NtCsh06HHTBymxI_19chess_vector_engine17similarity_searchNtB5_16SimilaritySearch14iter_positions
FN:292,_RNvMs2_NtCsh06HHTBymxI_19chess_vector_engine17similarity_searchNtB5_16SimilaritySearch15parallel_search
FN:428,_RNvMs2_NtCsh06HHTBymxI_19chess_vector_engine17similarity_searchNtB5_16SimilaritySearch15sse_dot_product
FN:398,_RNvMs2_NtCsh06HHTBymxI_19chess_vector_engine17similarity_searchNtB5_16SimilaritySearch16avx2_dot_product
FN:597,_RNvMs2_NtCsh06HHTBymxI_19chess_vector_engine17similarity_searchNtB5_16SimilaritySearch16get_position_ref
FN:375,_RNvMs2_NtCsh06HHTBymxI_19chess_vector_engine17similarity_searchNtB5_16SimilaritySearch16simd_dot_productB7_
FN:508,_RNvMs2_NtCsh06HHTBymxI_19chess_vector_engine17similarity_searchNtB5_16SimilaritySearch17cosine_similarity
FN:589,_RNvMs2_NtCsh06HHTBymxI_19chess_vector_engine17similarity_searchNtB5_16SimilaritySearch17get_all_positions
FN:211,_RNvMs2_NtCsh06HHTBymxI_19chess_vector_engine17similarity_searchNtB5_16SimilaritySearch17sequential_search
FN:487,_RNvMs2_NtCsh06HHTBymxI_19chess_vector_engine17similarity_searchNtB5_16SimilaritySearch18scalar_dot_productB7_
FN:357,_RNvMs2_NtCsh06HHTBymxI_19chess_vector_engine17similarity_searchNtB5_16SimilaritySearch22cosine_similarity_fast
FN:125,_RNvMs2_NtCsh06HHTBymxI_19chess_vector_engine17similarity_searchNtB5_16SimilaritySearch22gpu_accelerated_search
FN:68,_RNvMs2_NtCsh06HHTBymxI_19chess_vector_engine17similarity_searchNtB5_16SimilaritySearch3new
FN:549,_RNvMs2_NtCsh06HHTBymxI_19chess_vector_engine17similarity_searchNtB5_16SimilaritySearch4size
FN:103,_RNvMs2_NtCsh06HHTBymxI_19chess_vector_engine17similarity_searchNtB5_16SimilaritySearch6search
FN:554,_RNvMs2_NtCsh06HHTBymxI_19chess_vector_engine17similarity_searchNtB5_16SimilaritySearch8is_empty
FN:45,_RNvXs0_NtCsh06HHTBymxI_19chess_vector_engine17similarity_searchNtB5_12SearchResultNtNtCs9sjCchOt1K7_4core3cmp10PartialOrd11partial_cmp
FN:574,_RNCNvMs2_NtCsh06HHTBymxI_19chess_vector_engine17similarity_searchNtB7_16SimilaritySearch10statistics0B9_
FN:578,_RNCNvMs2_NtCsh06HHTBymxI_19chess_vector_engine17similarity_searchNtB7_16SimilaritySearch10statisticss0_0B9_
FN:577,_RNCNvMs2_NtCsh06HHTBymxI_19chess_vector_engine17similarity_searchNtB7_16SimilaritySearch10statisticss_0B9_
FN:607,_RNCNvMs2_NtCsh06HHTBymxI_19chess_vector_engine17similarity_searchNtB7_16SimilaritySearch14iter_positions0B9_
FN:305,_RNCNvMs2_NtCsh06HHTBymxI_19chess_vector_engine17similarity_searchNtB7_16SimilaritySearch15parallel_search0B9_
FN:312,_RNCNvMs2_NtCsh06HHTBymxI_19chess_vector_engine17similarity_searchNtB7_16SimilaritySearch15parallel_searchs_0B9_
FN:600,_RNCNvMs2_NtCsh06HHTBymxI_19chess_vector_engine17similarity_searchNtB7_16SimilaritySearch16get_position_ref0B9_
FN:592,_RNCNvMs2_NtCsh06HHTBymxI_19chess_vector_engine17similarity_searchNtB7_16SimilaritySearch17get_all_positions0B9_
FN:154,_RNCNvMs2_NtCsh06HHTBymxI_19chess_vector_engine17similarity_searchNtB7_16SimilaritySearch22gpu_accelerated_search0B9_
FN:159,_RNCNvMs2_NtCsh06HHTBymxI_19chess_vector_engine17similarity_searchNtB7_16SimilaritySearch22gpu_accelerated_searchs_0B9_
FNDA:0,_RNCNvMs2_NtCsh06HHTBymxI_19chess_vector_engine17similarity_searchNtB7_16SimilaritySearch18brute_force_search0B9_
FNDA:0,_RNCNvMs2_NtCsh06HHTBymxI_19chess_vector_engine17similarity_searchNtB7_16SimilaritySearch18brute_force_searchs0_0B9_
FNDA:0,_RNCNvMs2_NtCsh06HHTBymxI_19chess_vector_engine17similarity_searchNtB7_16SimilaritySearch18brute_force_searchs1_0B9_
FNDA:0,_RNCNvMs2_NtCsh06HHTBymxI_19chess_vector_engine17similarity_searchNtB7_16SimilaritySearch18brute_force_searchs_0B9_
FNDA:0,_RNCNvMs2_NtCsh06HHTBymxI_19chess_vector_engine17similarity_searchNtB7_16SimilaritySearch18euclidean_distance0B9_
FNDA:0,_RNCNvMs2_NtCsh06HHTBymxI_19chess_vector_engine17similarity_searchNtB7_16SimilaritySearch18search_by_distance0B9_
FNDA:0,_RNCNvMs2_NtCsh06HHTBymxI_19chess_vector_engine17similarity_searchNtB7_16SimilaritySearch18search_by_distances_0B9_
FNDA:0,_RNCNvMs2_NtCsh06HHTBymxI_19chess_vector_engine17similarity_searchNtB7_16SimilaritySearch19parallel_search_ref0B9_
FNDA:0,_RNCNvMs2_NtCsh06HHTBymxI_19chess_vector_engine17similarity_searchNtB7_16SimilaritySearch19parallel_search_refs0_0B9_
FNDA:0,_RNCNvMs2_NtCsh06HHTBymxI_19chess_vector_engine17similarity_searchNtB7_16SimilaritySearch19parallel_search_refs_0B9_
FNDA:0,_RNCNvMs2_NtCsh06HHTBymxI_19chess_vector_engine17similarity_searchNtB7_16SimilaritySearch21sequential_search_ref0B9_
FNDA:0,_RNCNvMs2_NtCsh06HHTBymxI_19chess_vector_engine17similarity_searchNtB7_16SimilaritySearch21sequential_search_refs0_0B9_
FNDA:0,_RNCNvMs2_NtCsh06HHTBymxI_19chess_vector_engine17similarity_searchNtB7_16SimilaritySearch21sequential_search_refs_0B9_
FNDA:0,_RNvMs2_NtCsh06HHTBymxI_19chess_vector_engine17similarity_searchNtB5_16SimilaritySearch10search_ref
FNDA:0,_RNvMs2_NtCsh06HHTBymxI_19chess_vector_engine17similarity_searchNtB5_16SimilaritySearch18brute_force_search
FNDA:0,_RNvMs2_NtCsh06HHTBymxI_19chess_vector_engine17similarity_searchNtB5_16SimilaritySearch18euclidean_distance
FNDA:0,_RNvMs2_NtCsh06HHTBymxI_19chess_vector_engine17similarity_searchNtB5_16SimilaritySearch18search_by_distance
FNDA:0,_RNvMs2_NtCsh06HHTBymxI_19chess_vector_engine17similarity_searchNtB5_16SimilaritySearch19parallel_search_ref
FNDA:0,_RNvMs2_NtCsh06HHTBymxI_19chess_vector_engine17similarity_searchNtB5_16SimilaritySearch21sequential_search_ref
FNDA:0,_RNvMs2_NtCsh06HHTBymxI_19chess_vector_engine17similarity_searchNtB5_16SimilaritySearch5clear
FNDA:0,_RNvXNtCsh06HHTBymxI_19chess_vector_engine17similarity_searchNtB2_12SearchResultNtNtCs9sjCchOt1K7_4core3cmp9PartialEq2eq
FNDA:0,_RNvXs1_NtCsh06HHTBymxI_19chess_vector_engine17similarity_searchNtB5_12SearchResultNtNtCs9sjCchOt1K7_4core3cmp3Ord3cmp
FNDA:1,_RNvNtNtCsh06HHTBymxI_19chess_vector_engine17similarity_search5testss_15test_statistics
FNDA:1,_RNvNtNtCsh06HHTBymxI_19chess_vector_engine17similarity_search5testss_19test_add_and_search
FNDA:1,_RNvNtNtCsh06HHTBymxI_19chess_vector_engine17similarity_search5testss_22test_cosine_similarity
FNDA:1,_RNvNtNtCsh06HHTBymxI_19chess_vector_engine17similarity_search5testss_31test_similarity_search_creation
FNDA:1,_RNvMs2_NtCsh06HHTBymxI_19chess_vector_engine17similarity_searchNtB5_16SimilaritySearch10statistics
FNDA:1358,_RNvMs2_NtCsh06HHTBymxI_19chess_vector_engine17similarity_searchNtB5_16SimilaritySearch12add_position
FNDA:3,_RNvMs2_NtCsh06HHTBymxI_19chess_vector_engine17similarity_searchNtB5_16SimilaritySearch14iter_positions
FNDA:10,_RNvMs2_NtCsh06HHTBymxI_19chess_vector_engine17similarity_searchNtB5_16SimilaritySearch15parallel_search
FNDA:0,_RNvMs2_NtCsh06HHTBymxI_19chess_vector_engine17similarity_searchNtB5_16SimilaritySearch15sse_dot_product
FNDA:3378,_RNvMs2_NtCsh06HHTBymxI_19chess_vector_engine17similarity_searchNtB5_16SimilaritySearch16avx2_dot_product
FNDA:30720,_RNvMs2_NtCsh06HHTBymxI_19chess_vector_engine17similarity_searchNtB5_16SimilaritySearch16get_position_ref
FNDA:3378,_RNvMs2_NtCsh06HHTBymxI_19chess_vector_engine17similarity_searchNtB5_16SimilaritySearch16simd_dot_productB7_
FNDA:2,_RNvMs2_NtCsh06HHTBymxI_19chess_vector_engine17similarity_searchNtB5_16SimilaritySearch17cosine_similarity
FNDA:5,_RNvMs2_NtCsh06HHTBymxI_19chess_vector_engine17similarity_searchNtB5_16SimilaritySearch17get_all_positions
FNDA:17,_RNvMs2_NtCsh06HHTBymxI_19chess_vector_engine17similarity_searchNtB5_16SimilaritySearch17sequential_search
FNDA:0,_RNvMs2_NtCsh06HHTBymxI_19chess_vector_engine17similarity_searchNtB5_16SimilaritySearch18scalar_dot_productB7_
FNDA:2020,_RNvMs2_NtCsh06HHTBymxI_19chess_vector_engine17similarity_searchNtB5_16SimilaritySearch22cosine_similarity_fast
FNDA:0,_RNvMs2_NtCsh06HHTBymxI_19chess_vector_engine17similarity_searchNtB5_16SimilaritySearch22gpu_accelerated_search
FNDA:46,_RNvMs2_NtCsh06HHTBymxI_19chess_vector_engine17similarity_searchNtB5_16SimilaritySearch3new
FNDA:38,_RNvMs2_NtCsh06HHTBymxI_19chess_vector_engine17similarity_searchNtB5_16SimilaritySearch4size
FNDA:27,_RNvMs2_NtCsh06HHTBymxI_19chess_vector_engine17similarity_searchNtB5_16SimilaritySearch6search
FNDA:1,_RNvMs2_NtCsh06HHTBymxI_19chess_vector_engine17similarity_searchNtB5_16SimilaritySearch8is_empty
FNDA:4,_RNvXs0_NtCsh06HHTBymxI_19chess_vector_engine17similarity_searchNtB5_12SearchResultNtNtCs9sjCchOt1K7_4core3cmp10PartialOrd11partial_cmp
FNDA:3,_RNCNvMs2_NtCsh06HHTBymxI_19chess_vector_engine17similarity_searchNtB7_16SimilaritySearch10statistics0B9_
FNDA:3,_RNCNvMs2_NtCsh06HHTBymxI_19chess_vector_engine17similarity_searchNtB7_16SimilaritySearch10statisticss0_0B9_
FNDA:3,_RNCNvMs2_NtCsh06HHTBymxI_19chess_vector_engine17similarity_searchNtB7_16SimilaritySearch10statisticss_0B9_
FNDA:50,_RNCNvMs2_NtCsh06HHTBymxI_19chess_vector_engine17similarity_searchNtB7_16SimilaritySearch14iter_positions0B9_
FNDA:2000,_RNCNvMs2_NtCsh06HHTBymxI_19chess_vector_engine17similarity_searchNtB7_16SimilaritySearch15parallel_search0B9_
FNDA:2110,_RNCNvMs2_NtCsh06HHTBymxI_19chess_vector_engine17similarity_searchNtB7_16SimilaritySearch15parallel_searchs_0B9_
FNDA:30720,_RNCNvMs2_NtCsh06HHTBymxI_19chess_vector_engine17similarity_searchNtB7_16SimilaritySearch16get_position_ref0B9_
FNDA:52,_RNCNvMs2_NtCsh06HHTBymxI_19chess_vector_engine17similarity_searchNtB7_16SimilaritySearch17get_all_positions0B9_
FNDA:0,_RNCNvMs2_NtCsh06HHTBymxI_19chess_vector_engine17similarity_searchNtB7_16SimilaritySearch22gpu_accelerated_search0B9_
FNDA:0,_RNCNvMs2_NtCsh06HHTBymxI_19chess_vector_engine17similarity_searchNtB7_16SimilaritySearch22gpu_accelerated_searchs_0B9_
FNF:55
FNH:28
DA:37,0
DA:38,0
DA:39,0
DA:45,4
DA:46,4
DA:47,4
DA:48,4
DA:52,0
DA:53,0
DA:54,0
DA:68,46
DA:69,46
DA:70,46
DA:71,46
DA:72,46
DA:73,46
DA:76,1358
DA:77,1358
DA:79,1358
DA:80,1358
DA:81,1358
DA:82,1358
DA:83,1358
DA:84,1358
DA:85,1358
DA:86,1358
DA:87,1358
DA:90,0
DA:91,0
DA:92,0
DA:93,0
DA:94,0
DA:95,0
DA:96,0
DA:98,0
DA:100,0
DA:103,27
DA:104,27
DA:105,27
DA:106,27
DA:107,27
DA:108,0
DA:109,0
DA:110,0
DA:111,0
DA:112,0
DA:114,27
DA:117,27
DA:118,10
DA:120,17
DA:122,27
DA:125,0
DA:126,0
DA:127,0
DA:128,0
DA:129,0
DA:130,0
DA:132,0
DA:133,0
DA:134,0
DA:135,0
DA:136,0
DA:137,0
DA:138,0
DA:139,0
DA:140,0
DA:141,0
DA:142,0
DA:144,0
DA:145,0
DA:148,0
DA:151,0
DA:152,0
DA:153,0
DA:154,0
DA:155,0
DA:156,0
DA:157,0
DA:158,0
DA:159,0
DA:160,0
DA:161,0
DA:162,0
DA:163,0
DA:164,0
DA:165,0
DA:166,0
DA:168,0
DA:169,0
DA:172,0
DA:173,0
DA:174,0
DA:175,0
DA:176,0
DA:177,0
DA:179,0
DA:180,0
DA:181,0
DA:182,0
DA:183,0
DA:184,0
DA:185,0
DA:186,0
DA:187,0
DA:188,0
DA:189,0
DA:190,0
DA:191,0
DA:192,0
DA:193,0
DA:194,0
DA:195,0
DA:196,0
DA:197,0
DA:198,0
DA:199,0
DA:200,0
DA:201,0
DA:202,0
DA:203,0
DA:204,0
DA:205,0
DA:206,0
DA:207,0
DA:208,0
DA:211,17
DA:212,17
DA:214,17
DA:215,8
DA:216,9
DA:217,9
DA:218,9
DA:219,9
DA:220,9
DA:221,9
DA:223,29
DA:224,20
DA:225,20
DA:226,20
DA:227,20
DA:228,20
DA:229,20
DA:230,20
DA:231,20
DA:232,20
DA:233,12
DA:234,12
DA:235,0
DA:236,0
DA:237,8
DA:241,9
DA:242,21
DA:243,12
DA:244,12
DA:247,9
DA:248,9
DA:249,17
DA:252,0
DA:253,0
DA:254,0
DA:255,0
DA:256,0
DA:257,0
DA:259,0
DA:260,0
DA:261,0
DA:262,0
DA:263,0
DA:264,0
DA:265,0
DA:266,0
DA:267,0
DA:268,0
DA:269,0
DA:270,0
DA:271,0
DA:272,0
DA:273,0
DA:274,0
DA:275,0
DA:276,0
DA:277,0
DA:278,0
DA:279,0
DA:280,0
DA:281,0
DA:282,0
DA:283,0
DA:284,0
DA:285,0
DA:286,0
DA:287,0
DA:288,0
DA:289,0
DA:292,10
DA:293,10
DA:295,10
DA:296,0
DA:297,10
DA:298,10
DA:299,10
DA:300,10
DA:301,10
DA:302,10
DA:303,10
DA:304,10
DA:305,2000
DA:306,2000
DA:307,2000
DA:308,2000
DA:309,10
DA:310,10
DA:311,10
DA:312,2110
DA:313,10
DA:314,10
DA:315,10
DA:316,10
DA:319,0
DA:320,0
DA:321,0
DA:322,0
DA:323,0
DA:324,0
DA:326,0
DA:327,0
DA:328,0
DA:329,0
DA:330,0
DA:331,0
DA:332,0
DA:335,0
DA:336,0
DA:337,0
DA:338,0
DA:339,0
DA:340,0
DA:341,0
DA:345,0
DA:346,0
DA:347,0
DA:348,0
DA:349,0
DA:352,0
DA:353,0
DA:354,0
DA:357,2020
DA:358,2020
DA:359,2020
DA:360,2020
DA:361,2020
DA:362,2020
DA:363,2020
DA:364,2020
DA:365,2020
DA:366,2020
DA:367,0
DA:369,2020
DA:371,2020
DA:375,3378
DA:376,3378
DA:377,3378
DA:378,3378
DA:379,3378
DA:380,0
DA:381,0
DA:382,0
DA:383,0
DA:384,0
DA:385,0
DA:386,0
DA:387,0
DA:388,0
DA:389,0
DA:390,0
DA:391,0
DA:392,0
DA:393,0
DA:394,3378
DA:398,3378
DA:399,3378
DA:400,3378
DA:401,3378
DA:404,427890
DA:405,424512
DA:406,424512
DA:407,424512
DA:408,424512
DA:409,424512
DA:410,424512
DA:413,3378
DA:414,3378
DA:415,3378
DA:418,3402
DA:419,24
DA:420,24
DA:421,24
DA:423,3378
DA:424,3378
DA:428,0
DA:429,0
DA:430,0
DA:431,0
DA:434,0
DA:435,0
DA:436,0
DA:437,0
DA:438,0
DA:439,0
DA:440,0
DA:443,0
DA:444,0
DA:445,0
DA:448,0
DA:449,0
DA:450,0
DA:451,0
DA:453,0
DA:454,0
DA:487,0
DA:488,0
DA:489,0
DA:490,0
DA:491,0
DA:492,0
DA:493,0
DA:494,0
DA:495,0
DA:496,0
DA:499,0
DA:500,0
DA:501,0
DA:502,0
DA:504,0
DA:505,0
DA:508,2
DA:509,2
DA:510,2
DA:511,2
DA:512,2
DA:513,2
DA:514,0
DA:516,2
DA:518,2
DA:521,0
DA:522,0
DA:523,0
DA:526,0
DA:527,0
DA:528,0
DA:529,0
DA:530,0
DA:531,0
DA:532,0
DA:533,0
DA:534,0
DA:535,0
DA:536,0
DA:537,0
DA:538,0
DA:539,0
DA:540,0
DA:541,0
DA:542,0
DA:543,0
DA:544,0
DA:545,0
DA:546,0
DA:549,38
DA:550,38
DA:551,38
DA:554,1
DA:555,1
DA:556,1
DA:559,0
DA:560,0
DA:561,0
DA:564,1
DA:565,1
DA:566,0
DA:567,0
DA:568,0
DA:569,0
DA:570,0
DA:571,0
DA:572,1
DA:573,1
DA:574,3
DA:575,1
DA:576,1
DA:577,3
DA:578,3
DA:579,1
DA:580,1
DA:581,1
DA:582,1
DA:583,1
DA:584,1
DA:585,1
DA:586,1
DA:589,5
DA:590,5
DA:591,5
DA:592,52
DA:593,5
DA:594,5
DA:597,30720
DA:598,30720
DA:599,30720
DA:600,30720
DA:601,30720
DA:604,3
DA:605,3
DA:606,3
DA:607,50
DA:608,3
DA:626,1
DA:627,1
DA:628,1
DA:629,1
DA:630,1
DA:633,1
DA:634,1
DA:635,1
DA:636,1
DA:637,1
DA:638,1
DA:639,1
DA:640,1
DA:641,1
DA:642,1
DA:643,1
DA:644,1
DA:645,1
DA:648,1
DA:649,1
DA:652,1
DA:653,1
DA:654,1
DA:657,1
DA:658,1
DA:659,1
DA:660,1
DA:661,1
DA:662,1
DA:663,1
DA:664,1
DA:665,1
DA:668,1
DA:669,1
DA:672,1
DA:673,1
DA:674,1
DA:675,1
DA:676,1
DA:677,1
DA:678,1
DA:679,1
DA:680,1
DA:681,1
DA:682,1
DA:683,1
DA:684,1
DA:685,1
BRF:0
BRH:0
LF:495
LH:226
end_of_record
SF:/home/justin/Projects/chess-vector-engine/src/streaming_loader.rs
FN:28,_RINvMNtCsh06HHTBymxI_19chess_vector_engine16streaming_loaderNtB3_15StreamingLoader16stream_load_jsonpEB5_
FN:118,_RINvMNtCsh06HHTBymxI_19chess_vector_engine16streaming_loaderNtB3_15StreamingLoader18stream_load_binarypEB5_
FN:197,_RNvMNtCsh06HHTBymxI_19chess_vector_engine16streaming_loaderNtB2_15StreamingLoader13process_batch
FN:289,_RNvXs_NtCsh06HHTBymxI_19chess_vector_engine16streaming_loaderNtB4_15StreamingLoaderNtNtCs9sjCchOt1K7_4core7default7Default7default
FN:301,_RNvNtNtCsh06HHTBymxI_19chess_vector_engine16streaming_loader5testss_20test_json_extraction
FN:318,_RNvNtNtCsh06HHTBymxI_19chess_vector_engine16streaming_loader5testss_20test_line_estimation
FN:253,_RINvMNtCsh06HHTBymxI_19chess_vector_engine16streaming_loaderNtB3_15StreamingLoader19estimate_line_countRNtNtCseJswNlh1fGO_3std4path4PathEB5_
FN:272,_RNCINvMNtCsh06HHTBymxI_19chess_vector_engine16streaming_loaderNtB5_15StreamingLoader19estimate_line_countRNtNtCseJswNlh1fGO_3std4path4PathE0B7_
FN:223,_RNCNvMNtCsh06HHTBymxI_19chess_vector_engine16streaming_loaderNtB4_15StreamingLoader21extract_position_data0B6_
FN:232,_RNCNvMNtCsh06HHTBymxI_19chess_vector_engine16streaming_loaderNtB4_15StreamingLoader21extract_position_datas0_0B6_
FN:233,_RNCNvMNtCsh06HHTBymxI_19chess_vector_engine16streaming_loaderNtB4_15StreamingLoader21extract_position_datas1_0B6_
FN:241,_RNCNvMNtCsh06HHTBymxI_19chess_vector_engine16streaming_loaderNtB4_15StreamingLoader21extract_position_datas2_0B6_
FN:242,_RNCNvMNtCsh06HHTBymxI_19chess_vector_engine16streaming_loaderNtB4_15StreamingLoader21extract_position_datas3_0B6_
FN:224,_RNCNvMNtCsh06HHTBymxI_19chess_vector_engine16streaming_loaderNtB4_15StreamingLoader21extract_position_datas_0B6_
FN:217,_RNvMNtCsh06HHTBymxI_19chess_vector_engine16streaming_loaderNtB2_15StreamingLoader21extract_position_data
FN:18,_RNvMNtCsh06HHTBymxI_19chess_vector_engine16streaming_loaderNtB2_15StreamingLoader3new
FNDA:0,_RINvMNtCsh06HHTBymxI_19chess_vector_engine16streaming_loaderNtB3_15StreamingLoader16stream_load_jsonpEB5_
FNDA:0,_RINvMNtCsh06HHTBymxI_19chess_vector_engine16streaming_loaderNtB3_15StreamingLoader18stream_load_binarypEB5_
FNDA:0,_RNvMNtCsh06HHTBymxI_19chess_vector_engine16streaming_loaderNtB2_15StreamingLoader13process_batch
FNDA:0,_RNvXs_NtCsh06HHTBymxI_19chess_vector_engine16streaming_loaderNtB4_15StreamingLoaderNtNtCs9sjCchOt1K7_4core7default7Default7default
FNDA:1,_RNvNtNtCsh06HHTBymxI_19chess_vector_engine16streaming_loader5testss_20test_json_extraction
FNDA:1,_RNvNtNtCsh06HHTBymxI_19chess_vector_engine16streaming_loader5testss_20test_line_estimation
FNDA:1,_RINvMNtCsh06HHTBymxI_19chess_vector_engine16streaming_loaderNtB3_15StreamingLoader19estimate_line_countRNtNtCseJswNlh1fGO_3std4path4PathEB5_
FNDA:790,_RNCINvMNtCsh06HHTBymxI_19chess_vector_engine16streaming_loaderNtB5_15StreamingLoader19estimate_line_countRNtNtCseJswNlh1fGO_3std4path4PathE0B7_
FNDA:1,_RNCNvMNtCsh06HHTBymxI_19chess_vector_engine16streaming_loaderNtB4_15StreamingLoader21extract_position_data0B6_
FNDA:0,_RNCNvMNtCsh06HHTBymxI_19chess_vector_engine16streaming_loaderNtB4_15StreamingLoader21extract_position_datas0_0B6_
FNDA:0,_RNCNvMNtCsh06HHTBymxI_19chess_vector_engine16streaming_loaderNtB4_15StreamingLoader21extract_position_datas1_0B6_
FNDA:0,_RNCNvMNtCsh06HHTBymxI_19chess_vector_engine16streaming_loaderNtB4_15StreamingLoader21extract_position_datas2_0B6_
FNDA:0,_RNCNvMNtCsh06HHTBymxI_19chess_vector_engine16streaming_loaderNtB4_15StreamingLoader21extract_position_datas3_0B6_
FNDA:1,_RNCNvMNtCsh06HHTBymxI_19chess_vector_engine16streaming_loaderNtB4_15StreamingLoader21extract_position_datas_0B6_
FNDA:1,_RNvMNtCsh06HHTBymxI_19chess_vector_engine16streaming_loaderNtB2_15StreamingLoader21extract_position_data
FNDA:2,_RNvMNtCsh06HHTBymxI_19chess_vector_engine16streaming_loaderNtB2_15StreamingLoader3new
FNF:16
FNH:8
DA:18,2
DA:19,2
DA:20,2
DA:21,2
DA:22,2
DA:23,2
DA:24,2
DA:28,0
DA:29,0
DA:30,0
DA:31,0
DA:32,0
DA:33,0
DA:34,0
DA:35,0
DA:37,0
DA:38,0
DA:41,0
DA:42,0
DA:43,0
DA:44,0
DA:45,0
DA:46,0
DA:47,0
DA:48,0
DA:49,0
DA:50,0
DA:51,0
DA:52,0
DA:53,0
DA:54,0
DA:55,0
DA:56,0
DA:57,0
DA:58,0
DA:61,0
DA:62,0
DA:63,0
DA:64,0
DA:65,0
DA:66,0
DA:67,0
DA:70,0
DA:71,0
DA:73,0
DA:74,0
DA:75,0
DA:76,0
DA:77,0
DA:78,0
DA:79,0
DA:81,0
DA:82,0
DA:83,0
DA:84,0
DA:85,0
DA:86,0
DA:87,0
DA:88,0
DA:89,0
DA:90,0
DA:92,0
DA:93,0
DA:94,0
DA:95,0
DA:96,0
DA:97,0
DA:101,0
DA:102,0
DA:103,0
DA:105,0
DA:106,0
DA:107,0
DA:108,0
DA:109,0
DA:110,0
DA:111,0
DA:112,0
DA:113,0
DA:114,0
DA:118,0
DA:119,0
DA:120,0
DA:121,0
DA:122,0
DA:123,0
DA:124,0
DA:127,0
DA:128,0
DA:131,0
DA:133,0
DA:134,0
DA:135,0
DA:136,0
DA:137,0
DA:138,0
DA:140,0
DA:144,0
DA:145,0
DA:146,0
DA:147,0
DA:148,0
DA:149,0
DA:150,0
DA:151,0
DA:152,0
DA:153,0
DA:154,0
DA:155,0
DA:156,0
DA:157,0
DA:158,0
DA:159,0
DA:160,0
DA:164,0
DA:166,0
DA:167,0
DA:168,0
DA:170,0
DA:171,0
DA:172,0
DA:173,0
DA:174,0
DA:175,0
DA:176,0
DA:177,0
DA:178,0
DA:179,0
DA:183,0
DA:184,0
DA:185,0
DA:187,0
DA:188,0
DA:191,0
DA:192,0
DA:193,0
DA:194,0
DA:197,0
DA:198,0
DA:199,0
DA:200,0
DA:201,0
DA:202,0
DA:204,0
DA:205,0
DA:206,0
DA:207,0
DA:210,0
DA:211,0
DA:212,0
DA:213,0
DA:214,0
DA:217,1
DA:218,1
DA:219,1
DA:220,1
DA:222,1
DA:223,1
DA:224,1
DA:226,1
DA:227,1
DA:228,0
DA:229,0
DA:231,0
DA:232,0
DA:233,0
DA:235,0
DA:236,0
DA:237,0
DA:238,0
DA:240,0
DA:241,0
DA:242,0
DA:244,0
DA:245,0
DA:246,0
DA:247,0
DA:249,0
DA:250,1
DA:253,1
DA:254,1
DA:255,1
DA:256,1
DA:259,1
DA:260,1
DA:261,1
DA:262,1
DA:263,1
DA:264,1
DA:265,1
DA:267,1
DA:268,0
DA:269,1
DA:270,1
DA:271,1
DA:272,790
DA:275,1
DA:276,1
DA:277,1
DA:279,1
DA:280,0
DA:281,0
DA:282,0
DA:283,0
DA:284,0
DA:285,1
DA:289,0
DA:290,0
DA:291,0
DA:301,1
DA:302,1
DA:303,1
DA:304,1
DA:305,1
DA:306,1
DA:307,1
DA:308,1
DA:309,1
DA:310,1
DA:312,1
DA:313,1
DA:314,1
DA:315,1
DA:318,1
DA:319,1
DA:320,1
DA:321,1
DA:322,1
DA:323,101
DA:324,100
DA:325,100
DA:327,1
DA:328,1
DA:329,1
DA:330,1
BRF:0
BRH:0
LF:242
LH:67
end_of_record
SF:/home/justin/Projects/chess-vector-engine/src/tactical_search.rs
FN:58,_RNCNvMNtCsh06HHTBymxI_19chess_vector_engine15tactical_searchNtB4_23FixedTranspositionTable3len0B6_
FN:57,_RNvMNtCsh06HHTBymxI_19chess_vector_engine15tactical_searchNtB2_23FixedTranspositionTable3len
FN:1172,_RNvMs0_NtCsh06HHTBymxI_19chess_vector_engine15tactical_searchNtB5_14TacticalSearch11clear_cache
FN:168,_RNvMs0_NtCsh06HHTBymxI_19chess_vector_engine15tactical_searchNtB5_14TacticalSearch15with_table_size
FN:1177,_RNvMs0_NtCsh06HHTBymxI_19chess_vector_engine15tactical_searchNtB5_14TacticalSearch9get_stats
FN:931,_RNCNvMs0_NtCsh06HHTBymxI_19chess_vector_engine15tactical_searchNtB7_14TacticalSearch17generate_captures0B9_
FN:271,_RNCNvMs0_NtCsh06HHTBymxI_19chess_vector_engine15tactical_searchNtB7_14TacticalSearch20parallel_root_search0B9_
FN:302,_RNCNvMs0_NtCsh06HHTBymxI_19chess_vector_engine15tactical_searchNtB7_14TacticalSearch20parallel_root_searchs_0B9_
FN:851,_RNCNvMs0_NtCsh06HHTBymxI_19chess_vector_engine15tactical_searchNtB7_14TacticalSearch22generate_ordered_moves0B9_
FN:334,_RNCNvMs0_NtCsh06HHTBymxI_19chess_vector_engine15tactical_searchNtB7_14TacticalSearch28parallel_iterative_deepening0B9_
FN:1240,_RNvNtNtCsh06HHTBymxI_19chess_vector_engine15tactical_search5testss_20test_parallel_search
FN:1372,_RNvNtNtCsh06HHTBymxI_19chess_vector_engine15tactical_search5testss_22test_history_heuristic
FN:1217,_RNvNtNtCsh06HHTBymxI_19chess_vector_engine15tactical_search5testss_24test_material_evaluation
FN:1355,_RNvNtNtCsh06HHTBymxI_19chess_vector_engine15tactical_search5testss_26test_killer_move_detection
FN:1225,_RNvNtNtCsh06HHTBymxI_19chess_vector_engine15tactical_search5testss_27test_search_with_time_limit
FN:1189,_RNvNtNtCsh06HHTBymxI_19chess_vector_engine15tactical_search5testss_29test_tactical_search_creation
FN:1289,_RNvNtNtCsh06HHTBymxI_19chess_vector_engine15tactical_search5testss_30test_advanced_pruning_features
FN:1325,_RNvNtNtCsh06HHTBymxI_19chess_vector_engine15tactical_search5testss_31test_move_ordering_with_mvv_lva
FN:1199,_RNvNtNtCsh06HHTBymxI_19chess_vector_engine15tactical_search5testss_32test_tactical_position_detection
FN:1271,_RNvNtNtCsh06HHTBymxI_19chess_vector_engine15tactical_search5testss_38test_parallel_search_disabled_fallback
FN:27,_RNvMNtCsh06HHTBymxI_19chess_vector_engine15tactical_searchNtB2_23FixedTranspositionTable3get
FN:16,_RNvMNtCsh06HHTBymxI_19chess_vector_engine15tactical_searchNtB2_23FixedTranspositionTable3new
FN:52,_RNvMNtCsh06HHTBymxI_19chess_vector_engine15tactical_searchNtB2_23FixedTranspositionTable5clear
FN:32,_RNvMNtCsh06HHTBymxI_19chess_vector_engine15tactical_searchNtB2_23FixedTranspositionTable6insert
FN:1022,_RNvMs0_NtCsh06HHTBymxI_19chess_vector_engine15tactical_searchNtB5_14TacticalSearch11king_safety
FN:181,_RNvMs0_NtCsh06HHTBymxI_19chess_vector_engine15tactical_searchNtB5_14TacticalSearch11new_default
FN:897,_RNvMs0_NtCsh06HHTBymxI_19chess_vector_engine15tactical_searchNtB5_14TacticalSearch13mvv_lva_score
FN:1127,_RNvMs0_NtCsh06HHTBymxI_19chess_vector_engine15tactical_searchNtB5_14TacticalSearch14is_killer_move
FN:1157,_RNvMs0_NtCsh06HHTBymxI_19chess_vector_engine15tactical_searchNtB5_14TacticalSearch14update_history
FN:218,_RNvMs0_NtCsh06HHTBymxI_19chess_vector_engine15tactical_searchNtB5_14TacticalSearch15search_parallel
FN:978,_RNvMs0_NtCsh06HHTBymxI_19chess_vector_engine15tactical_searchNtB5_14TacticalSearch16material_balance
FN:1000,_RNvMs0_NtCsh06HHTBymxI_19chess_vector_engine15tactical_searchNtB5_14TacticalSearch16tactical_bonuses
FN:705,_RNvMs0_NtCsh06HHTBymxI_19chess_vector_engine15tactical_searchNtB5_14TacticalSearch17alpha_beta_search
FN:940,_RNvMs0_NtCsh06HHTBymxI_19chess_vector_engine15tactical_searchNtB5_14TacticalSearch17evaluate_position
FN:929,_RNvMs0_NtCsh06HHTBymxI_19chess_vector_engine15tactical_searchNtB5_14TacticalSearch17generate_captures
FN:1166,_RNvMs0_NtCsh06HHTBymxI_19chess_vector_engine15tactical_searchNtB5_14TacticalSearch17get_history_score
FN:796,_RNvMs0_NtCsh06HHTBymxI_19chess_vector_engine15tactical_searchNtB5_14TacticalSearch17quiescence_search
FN:1142,_RNvMs0_NtCsh06HHTBymxI_19chess_vector_engine15tactical_searchNtB5_14TacticalSearch17store_killer_move
FN:1092,_RNvMs0_NtCsh06HHTBymxI_19chess_vector_engine15tactical_searchNtB5_14TacticalSearch20is_tactical_position
FN:259,_RNvMs0_NtCsh06HHTBymxI_19chess_vector_engine15tactical_searchNtB5_14TacticalSearch20parallel_root_search
FN:1119,_RNvMs0_NtCsh06HHTBymxI_19chess_vector_engine15tactical_searchNtB5_14TacticalSearch21has_non_pawn_material
FN:847,_RNvMs0_NtCsh06HHTBymxI_19chess_vector_engine15tactical_searchNtB5_14TacticalSearch22generate_ordered_moves
FN:1114,_RNvMs0_NtCsh06HHTBymxI_19chess_vector_engine15tactical_searchNtB5_14TacticalSearch23is_capture_or_promotion
FN:389,_RNvMs0_NtCsh06HHTBymxI_19chess_vector_engine15tactical_searchNtB5_14TacticalSearch24aspiration_window_search
FN:963,_RNvMs0_NtCsh06HHTBymxI_19chess_vector_engine15tactical_searchNtB5_14TacticalSearch26evaluate_terminal_position
FN:344,_RNvMs0_NtCsh06HHTBymxI_19chess_vector_engine15tactical_searchNtB5_14TacticalSearch26iterative_deepening_search
FN:577,_RNvMs0_NtCsh06HHTBymxI_19chess_vector_engine15tactical_searchNtB5_14TacticalSearch26principal_variation_search
FN:311,_RNvMs0_NtCsh06HHTBymxI_19chess_vector_engine15tactical_searchNtB5_14TacticalSearch28parallel_iterative_deepening
FN:155,_RNvMs0_NtCsh06HHTBymxI_19chess_vector_engine15tactical_searchNtB5_14TacticalSearch3new
FN:186,_RNvMs0_NtCsh06HHTBymxI_19chess_vector_engine15tactical_searchNtB5_14TacticalSearch6search
FN:422,_RNvMs0_NtCsh06HHTBymxI_19chess_vector_engine15tactical_searchNtB5_14TacticalSearch7minimax
FN:98,_RNvXs_NtCsh06HHTBymxI_19chess_vector_engine15tactical_searchNtB4_14TacticalConfigNtNtCs9sjCchOt1K7_4core7default7Default7default
FNDA:0,_RNCNvMNtCsh06HHTBymxI_19chess_vector_engine15tactical_searchNtB4_23FixedTranspositionTable3len0B6_
FNDA:0,_RNvMNtCsh06HHTBymxI_19chess_vector_engine15tactical_searchNtB2_23FixedTranspositionTable3len
FNDA:0,_RNvMs0_NtCsh06HHTBymxI_19chess_vector_engine15tactical_searchNtB5_14TacticalSearch11clear_cache
FNDA:0,_RNvMs0_NtCsh06HHTBymxI_19chess_vector_engine15tactical_searchNtB5_14TacticalSearch15with_table_size
FNDA:0,_RNvMs0_NtCsh06HHTBymxI_19chess_vector_engine15tactical_searchNtB5_14TacticalSearch9get_stats
FNDA:1325989,_RNCNvMs0_NtCsh06HHTBymxI_19chess_vector_engine15tactical_searchNtB7_14TacticalSearch17generate_captures0B9_
FNDA:60,_RNCNvMs0_NtCsh06HHTBymxI_19chess_vector_engine15tactical_searchNtB7_14TacticalSearch20parallel_root_search0B9_
FNDA:57,_RNCNvMs0_NtCsh06HHTBymxI_19chess_vector_engine15tactical_searchNtB7_14TacticalSearch20parallel_root_searchs_0B9_
FNDA:97891,_RNCNvMs0_NtCsh06HHTBymxI_19chess_vector_engine15tactical_searchNtB7_14TacticalSearch22generate_ordered_moves0B9_
FNDA:60,_RNCNvMs0_NtCsh06HHTBymxI_19chess_vector_engine15tactical_searchNtB7_14TacticalSearch28parallel_iterative_deepening0B9_
FNDA:1,_RNvNtNtCsh06HHTBymxI_19chess_vector_engine15tactical_search5testss_20test_parallel_search
FNDA:1,_RNvNtNtCsh06HHTBymxI_19chess_vector_engine15tactical_search5testss_22test_history_heuristic
FNDA:1,_RNvNtNtCsh06HHTBymxI_19chess_vector_engine15tactical_search5testss_24test_material_evaluation
FNDA:1,_RNvNtNtCsh06HHTBymxI_19chess_vector_engine15tactical_search5testss_26test_killer_move_detection
FNDA:0,_RNvNtNtCsh06HHTBymxI_19chess_vector_engine15tactical_search5testss_27test_search_with_time_limit
FNDA:1,_RNvNtNtCsh06HHTBymxI_19chess_vector_engine15tactical_search5testss_29test_tactical_search_creation
FNDA:1,_RNvNtNtCsh06HHTBymxI_19chess_vector_engine15tactical_search5testss_30test_advanced_pruning_features
FNDA:1,_RNvNtNtCsh06HHTBymxI_19chess_vector_engine15tactical_search5testss_31test_move_ordering_with_mvv_lva
FNDA:1,_RNvNtNtCsh06HHTBymxI_19chess_vector_engine15tactical_search5testss_32test_tactical_position_detection
FNDA:1,_RNvNtNtCsh06HHTBymxI_19chess_vector_engine15tactical_search5testss_38test_parallel_search_disabled_fallback
FNDA:4334,_RNvMNtCsh06HHTBymxI_19chess_vector_engine15tactical_searchNtB2_23FixedTranspositionTable3get
FNDA:30,_RNvMNtCsh06HHTBymxI_19chess_vector_engine15tactical_searchNtB2_23FixedTranspositionTable3new
FNDA:16,_RNvMNtCsh06HHTBymxI_19chess_vector_engine15tactical_searchNtB2_23FixedTranspositionTable5clear
FNDA:4061,_RNvMNtCsh06HHTBymxI_19chess_vector_engine15tactical_searchNtB2_23FixedTranspositionTable6insert
FNDA:49064,_RNvMs0_NtCsh06HHTBymxI_19chess_vector_engine15tactical_searchNtB5_14TacticalSearch11king_safety
FNDA:23,_RNvMs0_NtCsh06HHTBymxI_19chess_vector_engine15tactical_searchNtB5_14TacticalSearch11new_default
FNDA:32,_RNvMs0_NtCsh06HHTBymxI_19chess_vector_engine15tactical_searchNtB5_14TacticalSearch13mvv_lva_score
FNDA:196338,_RNvMs0_NtCsh06HHTBymxI_19chess_vector_engine15tactical_searchNtB5_14TacticalSearch14is_killer_move
FNDA:2,_RNvMs0_NtCsh06HHTBymxI_19chess_vector_engine15tactical_searchNtB5_14TacticalSearch14update_history
FNDA:4,_RNvMs0_NtCsh06HHTBymxI_19chess_vector_engine15tactical_searchNtB5_14TacticalSearch15search_parallel
FNDA:49065,_RNvMs0_NtCsh06HHTBymxI_19chess_vector_engine15tactical_searchNtB5_14TacticalSearch16material_balance
FNDA:49064,_RNvMs0_NtCsh06HHTBymxI_19chess_vector_engine15tactical_searchNtB5_14TacticalSearch16tactical_bonuses
FNDA:0,_RNvMs0_NtCsh06HHTBymxI_19chess_vector_engine15tactical_searchNtB5_14TacticalSearch17alpha_beta_search
FNDA:49064,_RNvMs0_NtCsh06HHTBymxI_19chess_vector_engine15tactical_searchNtB5_14TacticalSearch17evaluate_position
FNDA:54413,_RNvMs0_NtCsh06HHTBymxI_19chess_vector_engine15tactical_searchNtB5_14TacticalSearch17generate_captures
FNDA:183361,_RNvMs0_NtCsh06HHTBymxI_19chess_vector_engine15tactical_searchNtB5_14TacticalSearch17get_history_score
FNDA:44498,_RNvMs0_NtCsh06HHTBymxI_19chess_vector_engine15tactical_searchNtB5_14TacticalSearch17quiescence_search
FNDA:1,_RNvMs0_NtCsh06HHTBymxI_19chess_vector_engine15tactical_searchNtB5_14TacticalSearch17store_killer_move
FNDA:19,_RNvMs0_NtCsh06HHTBymxI_19chess_vector_engine15tactical_searchNtB5_14TacticalSearch20is_tactical_position
FNDA:3,_RNvMs0_NtCsh06HHTBymxI_19chess_vector_engine15tactical_searchNtB5_14TacticalSearch20parallel_root_search
FNDA:18,_RNvMs0_NtCsh06HHTBymxI_19chess_vector_engine15tactical_searchNtB5_14TacticalSearch21has_non_pawn_material
FNDA:4065,_RNvMs0_NtCsh06HHTBymxI_19chess_vector_engine15tactical_searchNtB5_14TacticalSearch22generate_ordered_moves
FNDA:554,_RNvMs0_NtCsh06HHTBymxI_19chess_vector_engine15tactical_searchNtB5_14TacticalSearch23is_capture_or_promotion
FNDA:0,_RNvMs0_NtCsh06HHTBymxI_19chess_vector_engine15tactical_searchNtB5_14TacticalSearch24aspiration_window_search
FNDA:0,_RNvMs0_NtCsh06HHTBymxI_19chess_vector_engine15tactical_searchNtB5_14TacticalSearch26evaluate_terminal_position
FNDA:13,_RNvMs0_NtCsh06HHTBymxI_19chess_vector_engine15tactical_searchNtB5_14TacticalSearch26iterative_deepening_search
FNDA:4061,_RNvMs0_NtCsh06HHTBymxI_19chess_vector_engine15tactical_searchNtB5_14TacticalSearch26principal_variation_search
FNDA:3,_RNvMs0_NtCsh06HHTBymxI_19chess_vector_engine15tactical_searchNtB5_14TacticalSearch28parallel_iterative_deepening
FNDA:30,_RNvMs0_NtCsh06HHTBymxI_19chess_vector_engine15tactical_searchNtB5_14TacticalSearch3new
FNDA:13,_RNvMs0_NtCsh06HHTBymxI_19chess_vector_engine15tactical_searchNtB5_14TacticalSearch6search
FNDA:48848,_RNvMs0_NtCsh06HHTBymxI_19chess_vector_engine15tactical_searchNtB5_14TacticalSearch7minimax
FNDA:92,_RNvXs_NtCsh06HHTBymxI_19chess_vector_engine15tactical_searchNtB4_14TacticalConfigNtNtCs9sjCchOt1K7_4core7default7Default7default
FNF:52
FNH:43
DA:16,30
DA:17,30
DA:18,30
DA:19,30
DA:20,30
DA:21,30
DA:22,30
DA:23,30
DA:24,30
DA:25,30
DA:27,4334
DA:28,4334
DA:29,4334
DA:30,4334
DA:32,4061
DA:33,4061
DA:36,4061
DA:37,3335
DA:38,726
DA:39,726
DA:40,726
DA:44,4061
DA:45,4061
DA:46,4061
DA:47,4061
DA:48,4061
DA:49,4061
DA:50,4061
DA:52,16
DA:53,16
DA:54,16
DA:55,16
DA:57,0
DA:58,0
DA:59,0
DA:98,92
DA:99,92
DA:100,92
DA:101,92
DA:102,92
DA:103,92
DA:104,92
DA:105,92
DA:106,92
DA:107,92
DA:108,92
DA:109,92
DA:110,92
DA:111,92
DA:112,92
DA:113,92
DA:114,92
DA:115,92
DA:116,92
DA:117,92
DA:118,92
DA:119,92
DA:120,92
DA:155,30
DA:156,30
DA:157,30
DA:158,30
DA:159,30
DA:160,30
DA:161,30
DA:162,30
DA:163,30
DA:164,30
DA:165,30
DA:168,0
DA:169,0
DA:170,0
DA:171,0
DA:172,0
DA:173,0
DA:174,0
DA:175,0
DA:176,0
DA:177,0
DA:178,0
DA:181,23
DA:182,23
DA:183,23
DA:186,13
DA:187,13
DA:188,13
DA:189,13
DA:190,13
DA:191,13
DA:192,13
DA:194,13
DA:195,13
DA:197,0
DA:198,0
DA:199,0
DA:200,0
DA:201,0
DA:202,0
DA:203,0
DA:204,0
DA:207,13
DA:208,13
DA:209,13
DA:210,13
DA:211,13
DA:212,13
DA:213,13
DA:214,13
DA:215,13
DA:218,4
DA:219,4
DA:220,1
DA:221,3
DA:222,3
DA:223,3
DA:224,3
DA:225,3
DA:226,3
DA:227,3
DA:228,3
DA:229,3
DA:230,3
DA:231,0
DA:232,0
DA:233,0
DA:234,0
DA:235,0
DA:236,0
DA:237,0
DA:238,0
DA:239,3
DA:242,3
DA:243,3
DA:245,0
DA:248,3
DA:249,3
DA:250,3
DA:251,3
DA:252,3
DA:253,3
DA:254,3
DA:255,3
DA:256,4
DA:259,3
DA:260,3
DA:261,3
DA:262,3
DA:263,3
DA:264,3
DA:265,3
DA:266,3
DA:267,3
DA:268,3
DA:269,3
DA:270,3
DA:271,60
DA:272,60
DA:273,60
DA:274,60
DA:275,60
DA:276,60
DA:277,60
DA:278,60
DA:279,60
DA:280,60
DA:281,60
DA:282,60
DA:285,60
DA:286,60
DA:287,60
DA:290,60
DA:291,60
DA:292,3
DA:295,3
DA:296,3
DA:297,3
DA:300,3
DA:301,3
DA:302,57
DA:303,3
DA:304,3
DA:305,3
DA:306,0
DA:308,3
DA:311,3
DA:312,3
DA:313,3
DA:314,3
DA:315,3
DA:316,3
DA:317,3
DA:318,3
DA:320,6
DA:322,6
DA:323,3
DA:324,3
DA:325,3
DA:326,3
DA:327,3
DA:328,3
DA:329,3
DA:330,3
DA:333,3
DA:334,60
DA:335,3
DA:336,3
DA:337,0
DA:340,3
DA:341,3
DA:344,13
DA:345,13
DA:346,13
DA:347,13
DA:349,55
DA:351,55
DA:352,9
DA:353,46
DA:355,46
DA:356,0
DA:358,46
DA:361,46
DA:362,0
DA:364,46
DA:365,46
DA:366,46
DA:367,46
DA:368,46
DA:369,46
DA:370,46
DA:373,46
DA:374,46
DA:375,46
DA:376,46
DA:377,46
DA:378,46
DA:379,46
DA:380,46
DA:381,0
DA:382,46
DA:385,13
DA:386,13
DA:389,0
DA:390,0
DA:391,0
DA:392,0
DA:393,0
DA:394,0
DA:395,0
DA:396,0
DA:397,0
DA:400,0
DA:401,0
DA:402,0
DA:403,0
DA:404,0
DA:405,0
DA:406,0
DA:407,0
DA:408,0
DA:409,0
DA:410,0
DA:411,0
DA:412,0
DA:413,0
DA:414,0
DA:416,0
DA:417,0
DA:418,0
DA:419,0
DA:422,48848
DA:423,48848
DA:424,48848
DA:425,48848
DA:426,48848
DA:427,48848
DA:428,48848
DA:429,48848
DA:430,48848
DA:431,48848
DA:432,48848
DA:433,48848
DA:434,48343
DA:436,505
DA:437,48343
DA:438,48343
DA:439,48343
DA:440,48343
DA:441,44009
DA:442,44009
DA:443,44009
DA:444,44009
DA:445,44009
DA:446,44009
DA:447,44009
DA:448,44009
DA:449,44009
DA:450,44009
DA:451,4334
DA:452,4334
DA:453,4334
DA:454,0
DA:455,4334
DA:456,4334
DA:457,4334
DA:458,4334
DA:459,4334
DA:460,999
DA:461,250
DA:462,268
DA:463,250
DA:464,3
DA:466,166
DA:467,2
DA:469,411
DA:471,315
DA:472,3335
DA:473,0
DA:476,4061
DA:477,4061
DA:478,4061
DA:479,4061
DA:480,3539
DA:481,3539
DA:482,3533
DA:483,1915
DA:486,0
DA:487,0
DA:488,0
DA:489,0
DA:490,4061
DA:493,4061
DA:494,3539
DA:495,3265
DA:496,1785
DA:497,1785
DA:500,0
DA:501,4061
DA:502,4061
DA:503,4061
DA:504,4061
DA:505,3539
DA:506,274
DA:507,273
DA:508,134
DA:509,134
DA:512,0
DA:513,4061
DA:514,4061
DA:515,4061
DA:516,4061
DA:517,4061
DA:518,32
DA:519,18
DA:520,18
DA:522,18
DA:523,18
DA:524,18
DA:526,0
DA:530,18
DA:531,18
DA:532,18
DA:533,18
DA:534,18
DA:535,0
DA:536,18
DA:537,4043
DA:540,4061
DA:542,4061
DA:543,4061
DA:545,4061
DA:548,0
DA:552,4061
DA:553,4061
DA:554,1571
DA:555,2490
DA:556,1497
DA:558,993
DA:561,4061
DA:562,4061
DA:563,4061
DA:564,4061
DA:565,4061
DA:566,4061
DA:567,4061
DA:568,4061
DA:569,4061
DA:570,4061
DA:571,0
DA:573,4061
DA:574,48848
DA:577,4061
DA:578,4061
DA:579,4061
DA:580,4061
DA:581,4061
DA:582,4061
DA:583,4061
DA:584,4061
DA:585,4061
DA:586,4061
DA:587,4061
DA:588,1877
DA:590,2184
DA:592,4061
DA:593,4061
DA:594,4061
DA:595,4061
DA:596,4061
DA:597,0
DA:598,4061
DA:600,47093
DA:601,47093
DA:605,47093
DA:606,47093
DA:607,617
DA:608,554
DA:609,554
DA:610,554
DA:615,554
DA:616,554
DA:617,554
DA:618,554
DA:619,554
DA:621,46539
DA:624,47093
DA:625,46689
DA:627,404
DA:630,47093
DA:631,4061
DA:632,4061
DA:633,4061
DA:634,4061
DA:635,4061
DA:637,43032
DA:638,43032
DA:640,43032
DA:641,43032
DA:642,43032
DA:643,43032
DA:644,43032
DA:645,43032
DA:646,43032
DA:647,43032
DA:648,43032
DA:649,43032
DA:650,42139
DA:653,1631
DA:654,230
DA:656,1401
DA:658,1631
DA:659,1631
DA:660,1631
DA:662,41401
DA:663,41401
DA:664,41401
DA:665,41401
DA:666,324
DA:667,324
DA:668,0
DA:669,0
DA:670,0
DA:671,0
DA:672,41401
DA:677,47093
DA:678,22641
DA:679,3130
DA:680,3130
DA:681,19511
DA:682,22641
DA:684,24452
DA:685,3279
DA:686,3279
DA:687,21173
DA:688,24452
DA:691,47093
DA:692,47093
DA:693,47093
DA:694,47093
DA:697,2483
DA:698,44610
DA:701,4061
DA:702,4061
DA:705,0
DA:706,0
DA:707,0
DA:708,0
DA:709,0
DA:710,0
DA:711,0
DA:712,0
DA:713,0
DA:714,0
DA:715,0
DA:716,0
DA:718,0
DA:720,0
DA:721,0
DA:722,0
DA:723,0
DA:724,0
DA:725,0
DA:727,0
DA:728,0
DA:731,0
DA:732,0
DA:733,0
DA:734,0
DA:735,0
DA:736,0
DA:741,0
DA:742,0
DA:743,0
DA:744,0
DA:745,0
DA:747,0
DA:750,0
DA:751,0
DA:753,0
DA:756,0
DA:759,0
DA:760,0
DA:762,0
DA:763,0
DA:765,0
DA:768,0
DA:769,0
DA:770,0
DA:771,0
DA:772,0
DA:773,0
DA:775,0
DA:776,0
DA:777,0
DA:778,0
DA:779,0
DA:782,0
DA:783,0
DA:784,0
DA:785,0
DA:788,0
DA:789,0
DA:792,0
DA:793,0
DA:796,44498
DA:797,44498
DA:798,44498
DA:799,44498
DA:800,44498
DA:801,44498
DA:802,44498
DA:803,44498
DA:804,44498
DA:805,44498
DA:806,44498
DA:807,44498
DA:808,44498
DA:809,0
DA:810,44498
DA:811,44498
DA:812,44498
DA:813,23123
DA:814,20606
DA:815,2517
DA:816,2517
DA:818,21375
DA:819,18562
DA:820,2813
DA:824,5330
DA:826,5508
DA:827,489
DA:828,489
DA:829,489
DA:830,489
DA:831,489
DA:832,329
DA:833,329
DA:834,216
DA:835,113
DA:837,160
DA:838,95
DA:839,65
DA:843,5235
DA:844,44498
DA:847,4065
DA:848,4065
DA:849,4065
DA:850,4065
DA:851,97891
DA:852,97891
DA:853,97891
DA:854,97891
DA:855,97891
DA:856,97891
DA:857,97891
DA:858,97891
DA:859,97891
DA:860,97891
DA:861,0
DA:862,97891
DA:863,97891
DA:864,0
DA:865,97891
DA:866,97891
DA:867,97891
DA:868,97891
DA:869,5338
DA:870,858
DA:873,16
DA:874,16
DA:875,16
DA:877,91679
DA:878,91679
DA:879,91679
DA:880,91679
DA:881,91679
DA:882,0
DA:883,0
DA:884,91679
DA:885,91679
DA:886,91679
DA:887,91679
DA:888,91679
DA:889,91679
DA:890,91679
DA:891,97891
DA:892,4065
DA:893,4065
DA:894,4065
DA:897,32
DA:898,32
DA:899,32
DA:900,32
DA:901,0
DA:902,0
DA:903,0
DA:904,0
DA:905,0
DA:908,0
DA:911,32
DA:912,32
DA:913,10
DA:914,1
DA:915,16
DA:916,0
DA:917,5
DA:918,0
DA:921,0
DA:925,32
DA:926,32
DA:929,54413
DA:930,54413
DA:931,1325989
DA:932,1325989
DA:933,1325989
DA:934,1311076
DA:935,1325989
DA:936,54413
DA:937,54413
DA:940,49064
DA:941,49064
DA:942,0
DA:943,49064
DA:944,49064
DA:945,49064
DA:946,49064
DA:947,49064
DA:948,49064
DA:949,49064
DA:950,49064
DA:951,49064
DA:952,49064
DA:953,49064
DA:954,49064
DA:955,49064
DA:956,49064
DA:957,49064
DA:958,49064
DA:959,49064
DA:960,49064
DA:963,0
DA:964,0
DA:966,0
DA:967,0
DA:969,0
DA:972,0
DA:973,0
DA:975,0
DA:978,49065
DA:979,49065
DA:980,49065
DA:981,49065
DA:982,49065
DA:983,49065
DA:984,49065
DA:985,49065
DA:986,49065
DA:987,49065
DA:989,245325
DA:990,245325
DA:991,245325
DA:992,245325
DA:993,245325
DA:994,245325
DA:996,49065
DA:997,49065
DA:1000,49064
DA:1001,49064
DA:1002,49064
DA:1003,49064
DA:1004,49064
DA:1005,49064
DA:1006,49064
DA:1007,49064
DA:1008,49064
DA:1009,49064
DA:1010,49064
DA:1011,49064
DA:1012,49064
DA:1013,25251
DA:1014,25251
DA:1015,23813
DA:1016,23813
DA:1018,49064
DA:1019,49064
DA:1022,49064
DA:1023,49064
DA:1026,98128
DA:1027,98128
DA:1028,98128
DA:1029,98128
DA:1030,98128
DA:1033,98128
DA:1034,49064
DA:1036,49064
DA:1040,98128
DA:1042,483
DA:1043,185
DA:1044,483
DA:1045,298
DA:1047,483
DA:1049,483
DA:1050,483
DA:1051,483
DA:1052,483
DA:1053,483
DA:1054,483
DA:1055,483
DA:1056,483
DA:1057,185
DA:1058,298
DA:1059,483
DA:1060,298
DA:1061,298
DA:1062,0
DA:1063,97645
DA:1066,98128
DA:1067,97645
DA:1068,97645
DA:1069,97458
DA:1070,97458
DA:1071,97645
DA:1072,96969
DA:1073,96969
DA:1074,483
DA:1077,98128
DA:1078,105
DA:1079,98023
DA:1081,98128
DA:1082,49064
DA:1083,49064
DA:1084,49064
DA:1085,49064
DA:1088,49064
DA:1089,49064
DA:1092,19
DA:1093,19
DA:1094,19
DA:1095,0
DA:1096,19
DA:1097,19
DA:1098,19
DA:1099,19
DA:1100,19
DA:1101,0
DA:1102,19
DA:1103,19
DA:1104,19
DA:1105,19
DA:1106,19
DA:1107,0
DA:1108,19
DA:1109,19
DA:1110,19
DA:1111,19
DA:1114,554
DA:1115,554
DA:1116,554
DA:1119,18
DA:1120,18
DA:1121,18
DA:1122,18
DA:1123,18
DA:1124,18
DA:1127,196338
DA:1129,1399486
DA:1130,3609445
DA:1131,2406297
DA:1132,1
DA:1133,1
DA:1134,0
DA:1135,2406296
DA:1138,196337
DA:1139,196338
DA:1142,1
DA:1143,1
DA:1146,1
DA:1147,0
DA:1148,0
DA:1149,0
DA:1150,0
DA:1151,1
DA:1152,1
DA:1153,1
DA:1154,1
DA:1157,2
DA:1158,2
DA:1159,2
DA:1160,2
DA:1161,2
DA:1162,2
DA:1163,2
DA:1166,183361
DA:1167,183361
DA:1168,183361
DA:1169,183361
DA:1172,0
DA:1173,0
DA:1174,0
DA:1177,0
DA:1178,0
DA:1179,0
DA:1189,1
DA:1190,1
DA:1191,1
DA:1192,1
DA:1193,1
DA:1194,1
DA:1195,1
DA:1196,1
DA:1199,1
DA:1200,1
DA:1201,1
DA:1202,1
DA:1203,1
DA:1204,1
DA:1207,1
DA:1208,1
DA:1209,1
DA:1210,1
DA:1211,1
DA:1212,1
DA:1214,1
DA:1217,1
DA:1218,1
DA:1219,1
DA:1220,1
DA:1221,1
DA:1222,1
DA:1225,0
DA:1226,0
DA:1227,0
DA:1228,0
DA:1229,0
DA:1230,0
DA:1231,0
DA:1232,0
DA:1233,0
DA:1234,0
DA:1235,0
DA:1236,0
DA:1237,0
DA:1240,1
DA:1241,1
DA:1242,1
DA:1243,1
DA:1244,1
DA:1245,1
DA:1246,1
DA:1247,1
DA:1248,1
DA:1249,1
DA:1250,1
DA:1251,1
DA:1252,1
DA:1253,1
DA:1254,1
DA:1255,1
DA:1256,1
DA:1257,1
DA:1258,1
DA:1259,1
DA:1260,1
DA:1261,1
DA:1262,1
DA:1263,1
DA:1266,1
DA:1267,1
DA:1268,1
DA:1271,1
DA:1272,1
DA:1273,1
DA:1274,1
DA:1275,1
DA:1276,1
DA:1277,1
DA:1278,1
DA:1279,1
DA:1280,1
DA:1281,1
DA:1282,1
DA:1283,1
DA:1284,1
DA:1285,1
DA:1286,1
DA:1289,1
DA:1290,1
DA:1291,1
DA:1292,1
DA:1293,1
DA:1294,1
DA:1295,1
DA:1296,1
DA:1297,1
DA:1298,1
DA:1299,1
DA:1300,1
DA:1301,1
DA:1302,1
DA:1303,1
DA:1304,1
DA:1305,1
DA:1306,1
DA:1307,1
DA:1308,1
DA:1309,1
DA:1310,1
DA:1311,1
DA:1312,1
DA:1313,1
DA:1314,1
DA:1315,1
DA:1316,1
DA:1320,1
DA:1321,1
DA:1322,1
DA:1325,1
DA:1326,1
DA:1327,1
DA:1328,1
DA:1329,1
DA:1330,1
DA:1331,1
DA:1332,1
DA:1333,1
DA:1334,1
DA:1337,1
DA:1338,1
DA:1339,1
DA:1340,1
DA:1341,1
DA:1342,1
DA:1343,0
DA:1347,1
DA:1348,0
DA:1349,0
DA:1350,1
DA:1351,0
DA:1352,1
DA:1355,1
DA:1356,1
DA:1357,1
DA:1358,1
DA:1359,1
DA:1360,1
DA:1361,1
DA:1362,1
DA:1365,1
DA:1366,1
DA:1367,1
DA:1368,1
DA:1369,1
DA:1372,1
DA:1373,1
DA:1374,1
DA:1375,1
DA:1376,1
DA:1377,1
DA:1378,1
DA:1381,1
DA:1382,1
DA:1383,1
DA:1384,1
DA:1387,1
DA:1388,1
DA:1389,1
DA:1390,1
BRF:0
BRH:0
LF:1015
LH:817
end_of_record
SF:/home/justin/Projects/chess-vector-engine/src/training.rs
FN:639,_RINvMs7_NtCsh06HHTBymxI_19chess_vector_engine8trainingNtB6_15TrainingDataset13load_from_pgnpEB8_
FN:1671,_RINvMsc_NtCsh06HHTBymxI_19chess_vector_engine8trainingNtB6_20TacticalPuzzleParser18parse_csv_parallelpEB8_
FN:1600,_RINvMsc_NtCsh06HHTBymxI_19chess_vector_engine8trainingNtB6_20TacticalPuzzleParser20parse_csv_sequentialpEB8_
FN:2120,_RINvMsc_NtCsh06HHTBymxI_19chess_vector_engine8trainingNtB6_20TacticalPuzzleParser26parse_and_load_incrementalpEB8_
FN:1582,_RINvMsc_NtCsh06HHTBymxI_19chess_vector_engine8trainingNtB6_20TacticalPuzzleParser9parse_csvpEB8_
FN:1698,_RNCINvMsc_NtCsh06HHTBymxI_19chess_vector_engine8trainingNtB8_20TacticalPuzzleParser18parse_csv_parallelpE0Ba_
FN:398,_RNCNCNvMs3_NtCsh06HHTBymxI_19chess_vector_engine8trainingNtB9_18StockfishEvaluator23evaluate_batch_parallel00Bb_
FN:396,_RNCNvMs3_NtCsh06HHTBymxI_19chess_vector_engine8trainingNtB7_18StockfishEvaluator23evaluate_batch_parallel0B9_
FN:610,_RNCNvMs6_NtCsh06HHTBymxI_19chess_vector_engine8trainingNtB7_13StockfishPool23evaluate_batch_parallel0B9_
FN:218,_RNvMs1_NtCsh06HHTBymxI_19chess_vector_engine8trainingNtB5_13GameExtractor3new
FN:350,_RNvMs3_NtCsh06HHTBymxI_19chess_vector_engine8trainingNtB5_18StockfishEvaluator14evaluate_batch
FN:300,_RNvMs3_NtCsh06HHTBymxI_19chess_vector_engine8trainingNtB5_18StockfishEvaluator17evaluate_position
FN:380,_RNvMs3_NtCsh06HHTBymxI_19chess_vector_engine8trainingNtB5_18StockfishEvaluator23evaluate_batch_parallel
FN:295,_RNvMs3_NtCsh06HHTBymxI_19chess_vector_engine8trainingNtB5_18StockfishEvaluator3new
FN:463,_RNvMs4_NtCsh06HHTBymxI_19chess_vector_engine8trainingNtB5_16StockfishProcess12send_command
FN:469,_RNvMs4_NtCsh06HHTBymxI_19chess_vector_engine8trainingNtB5_16StockfishProcess14wait_for_ready
FN:481,_RNvMs4_NtCsh06HHTBymxI_19chess_vector_engine8trainingNtB5_16StockfishProcess17evaluate_position
FN:427,_RNvMs4_NtCsh06HHTBymxI_19chess_vector_engine8trainingNtB5_16StockfishProcess3new
FN:572,_RNvMs6_NtCsh06HHTBymxI_19chess_vector_engine8trainingNtB5_13StockfishPool17evaluate_position
FN:599,_RNvMs6_NtCsh06HHTBymxI_19chess_vector_engine8trainingNtB5_13StockfishPool23evaluate_batch_parallel
FN:539,_RNvMs6_NtCsh06HHTBymxI_19chess_vector_engine8trainingNtB5_13StockfishPool3new
FN:700,_RNvMs7_NtCsh06HHTBymxI_19chess_vector_engine8trainingNtB5_15TrainingDataset23evaluate_with_stockfish
FN:706,_RNvMs7_NtCsh06HHTBymxI_19chess_vector_engine8trainingNtB5_15TrainingDataset32evaluate_with_stockfish_parallel
FN:733,_RNvMs7_NtCsh06HHTBymxI_19chess_vector_engine8trainingNtB5_15TrainingDataset5split
FN:1243,_RNvMs8_NtCsh06HHTBymxI_19chess_vector_engine8trainingNtB5_15SelfPlayTrainer16play_single_game
FN:1391,_RNvMs8_NtCsh06HHTBymxI_19chess_vector_engine8trainingNtB5_15SelfPlayTrainer18get_random_opening
FN:1211,_RNvMs8_NtCsh06HHTBymxI_19chess_vector_engine8trainingNtB5_15SelfPlayTrainer22generate_training_data
FN:1329,_RNvMs8_NtCsh06HHTBymxI_19chess_vector_engine8trainingNtB5_15SelfPlayTrainer28select_move_with_exploration
FN:1351,_RNvMs8_NtCsh06HHTBymxI_19chess_vector_engine8trainingNtB5_15SelfPlayTrainer28select_move_with_temperature
FN:1203,_RNvMs8_NtCsh06HHTBymxI_19chess_vector_engine8trainingNtB5_15SelfPlayTrainer3new
FN:1773,_RNvMsc_NtCsh06HHTBymxI_19chess_vector_engine8trainingNtB5_20TacticalPuzzleParser16parse_csv_fields
FN:1723,_RNvMsc_NtCsh06HHTBymxI_19chess_vector_engine8trainingNtB5_20TacticalPuzzleParser16parse_csv_record
FN:33,_RNvXNtCsh06HHTBymxI_19chess_vector_engine8trainingNtB2_14SelfPlayConfigNtNtCs9sjCchOt1K7_4core7default7Default7default
FN:232,_RNvXs2_NtCsh06HHTBymxI_19chess_vector_engine8trainingNtB5_13GameExtractorNtNtCshhoJQFGHStH_10pgn_reader7visitor7Visitor10begin_game
FN:282,_RNvXs2_NtCsh06HHTBymxI_19chess_vector_engine8trainingNtB5_13GameExtractorNtNtCshhoJQFGHStH_10pgn_reader7visitor7Visitor15begin_variation
FN:240,_RNvXs2_NtCsh06HHTBymxI_19chess_vector_engine8trainingNtB5_13GameExtractorNtNtCshhoJQFGHStH_10pgn_reader7visitor7Visitor3san
FN:238,_RNvXs2_NtCsh06HHTBymxI_19chess_vector_engine8trainingNtB5_13GameExtractorNtNtCshhoJQFGHStH_10pgn_reader7visitor7Visitor6header
FN:286,_RNvXs2_NtCsh06HHTBymxI_19chess_vector_engine8trainingNtB5_13GameExtractorNtNtCshhoJQFGHStH_10pgn_reader7visitor7Visitor8end_game
FN:525,_RNvXs5_NtCsh06HHTBymxI_19chess_vector_engine8trainingNtB5_16StockfishProcessNtNtNtCs9sjCchOt1K7_4core3ops4drop4Drop4drop
FN:788,_RINvMs7_NtCsh06HHTBymxI_19chess_vector_engine8trainingNtB6_15TrainingDataset15load_and_appendRNtNtCseJswNlh1fGO_3std4path7PathBufEB8_
FN:878,_RINvMs7_NtCsh06HHTBymxI_19chess_vector_engine8trainingNtB6_15TrainingDataset16save_append_onlyRNtNtCseJswNlh1fGO_3std4path4PathEB8_
FN:815,_RINvMs7_NtCsh06HHTBymxI_19chess_vector_engine8trainingNtB6_15TrainingDataset16save_incrementalRNtNtCseJswNlh1fGO_3std4path7PathBufEB8_
FN:849,_RINvMs7_NtCsh06HHTBymxI_19chess_vector_engine8trainingNtB6_15TrainingDataset25save_incremental_no_dedupRNtNtCseJswNlh1fGO_3std4path4PathEB8_
FN:924,_RINvMs7_NtCsh06HHTBymxI_19chess_vector_engine8trainingNtB6_15TrainingDataset27save_incremental_full_mergeRNtNtCseJswNlh1fGO_3std4path4PathEB8_
FN:823,_RINvMs7_NtCsh06HHTBymxI_19chess_vector_engine8trainingNtB6_15TrainingDataset29save_incremental_with_optionsRNtNtCseJswNlh1fGO_3std4path7PathBufEB8_
FN:781,_RINvMs7_NtCsh06HHTBymxI_19chess_vector_engine8trainingNtB6_15TrainingDataset4loadRNtNtCseJswNlh1fGO_3std4path4PathEB8_
FN:781,_RINvMs7_NtCsh06HHTBymxI_19chess_vector_engine8trainingNtB6_15TrainingDataset4loadRNtNtCseJswNlh1fGO_3std4path7PathBufEB8_
FN:774,_RINvMs7_NtCsh06HHTBymxI_19chess_vector_engine8trainingNtB6_15TrainingDataset4saveRNtNtCseJswNlh1fGO_3std4path4PathEB8_
FN:774,_RINvMs7_NtCsh06HHTBymxI_19chess_vector_engine8trainingNtB6_15TrainingDataset4saveRNtNtCseJswNlh1fGO_3std4path7PathBufEB8_
FN:2069,_RINvMsc_NtCsh06HHTBymxI_19chess_vector_engine8trainingNtB6_20TacticalPuzzleParser21load_tactical_puzzlesRNtNtCseJswNlh1fGO_3std4path4PathEB8_
FN:2069,_RINvMsc_NtCsh06HHTBymxI_19chess_vector_engine8trainingNtB6_20TacticalPuzzleParser21load_tactical_puzzlesRNtNtCseJswNlh1fGO_3std4path7PathBufEB8_
FN:2058,_RINvMsc_NtCsh06HHTBymxI_19chess_vector_engine8trainingNtB6_20TacticalPuzzleParser21save_tactical_puzzlesRNtNtCseJswNlh1fGO_3std4path4PathEB8_
FN:2058,_RINvMsc_NtCsh06HHTBymxI_19chess_vector_engine8trainingNtB6_20TacticalPuzzleParser21save_tactical_puzzlesRNtNtCseJswNlh1fGO_3std4path7PathBufEB8_
FN:2079,_RINvMsc_NtCsh06HHTBymxI_19chess_vector_engine8trainingNtB6_20TacticalPuzzleParser33save_tactical_puzzles_incrementalRNtNtCseJswNlh1fGO_3std4path7PathBufEB8_
FN:123,_RINvXNvXs0_NtCsh06HHTBymxI_19chess_vector_engine8trainingNtB9_20TacticalTrainingDataNtNtCs3p7QKI2gXgo_5serde2de11Deserialize11deserializeNtB3_27TacticalTrainingDataVisitorNtB1m_7Visitor9visit_mapINtNtCs6miviSZGsq6_10serde_json2de9MapAccessNtNtB3c_4read7StrReadEEBb_
FN:1513,_RINvXNvXsb_NtCsh06HHTBymxI_19chess_vector_engine8trainingNtB9_12TrainingDataNtNtCs3p7QKI2gXgo_5serde2de11Deserialize11deserializeNtB3_19TrainingDataVisitorNtB1e_7Visitor9visit_mapINtNtCs6miviSZGsq6_10serde_json2de9MapAccessNtNtB2W_4read7StrReadEEBb_
FN:107,_RINvXs0_NtCsh06HHTBymxI_19chess_vector_engine8trainingNtB6_20TacticalTrainingDataNtNtCs3p7QKI2gXgo_5serde2de11Deserialize11deserializeQINtNtCs6miviSZGsq6_10serde_json2de12DeserializerNtNtB2e_4read7StrReadEEB8_
FN:91,_RINvXs_NtCsh06HHTBymxI_19chess_vector_engine8trainingNtB5_20TacticalTrainingDataNtNtCs3p7QKI2gXgo_5serde3ser9Serialize9serializeQINtNtCs6miviSZGsq6_10serde_json3ser10SerializerQINtNtCs6bBekJvxEMJ_5alloc3vec3VechENtB26_15PrettyFormatterEEB7_
FN:1482,_RINvXsa_NtCsh06HHTBymxI_19chess_vector_engine8trainingNtB6_12TrainingDataNtNtCs3p7QKI2gXgo_5serde3ser9Serialize9serializeQINtNtCs6miviSZGsq6_10serde_json3ser10SerializerQINtNtCs6bBekJvxEMJ_5alloc3vec3VechEEEB8_
FN:1482,_RINvXsa_NtCsh06HHTBymxI_19chess_vector_engine8trainingNtB6_12TrainingDataNtNtCs3p7QKI2gXgo_5serde3ser9Serialize9serializeQINtNtCs6miviSZGsq6_10serde_json3ser10SerializerQINtNtCs6bBekJvxEMJ_5alloc3vec3VechENtB1Z_15PrettyFormatterEEB8_
FN:1497,_RINvXsb_NtCsh06HHTBymxI_19chess_vector_engine8trainingNtB6_12TrainingDataNtNtCs3p7QKI2gXgo_5serde2de11Deserialize11deserializeQINtNtCs6miviSZGsq6_10serde_json2de12DeserializerNtNtB26_4read7StrReadEEB8_
FN:2093,_RNCINvMsc_NtCsh06HHTBymxI_19chess_vector_engine8trainingNtB8_20TacticalPuzzleParser33save_tactical_puzzles_incrementalRNtNtCseJswNlh1fGO_3std4path7PathBufE0Ba_
FN:171,_RNCINvXNvXs0_NtCsh06HHTBymxI_19chess_vector_engine8trainingNtBb_20TacticalTrainingDataNtNtCs3p7QKI2gXgo_5serde2de11Deserialize11deserializeNtB5_27TacticalTrainingDataVisitorNtB1o_7Visitor9visit_mapINtNtCs6miviSZGsq6_10serde_json2de9MapAccessNtNtB3e_4read7StrReadEE0Bd_
FN:175,_RNCINvXNvXs0_NtCsh06HHTBymxI_19chess_vector_engine8trainingNtBb_20TacticalTrainingDataNtNtCs3p7QKI2gXgo_5serde2de11Deserialize11deserializeNtB5_27TacticalTrainingDataVisitorNtB1o_7Visitor9visit_mapINtNtCs6miviSZGsq6_10serde_json2de9MapAccessNtNtB3e_4read7StrReadEEs0_0Bd_
FN:177,_RNCINvXNvXs0_NtCsh06HHTBymxI_19chess_vector_engine8trainingNtBb_20TacticalTrainingDataNtNtCs3p7QKI2gXgo_5serde2de11Deserialize11deserializeNtB5_27TacticalTrainingDataVisitorNtB1o_7Visitor9visit_mapINtNtCs6miviSZGsq6_10serde_json2de9MapAccessNtNtB3e_4read7StrReadEEs1_0Bd_
FN:179,_RNCINvXNvXs0_NtCsh06HHTBymxI_19chess_vector_engine8trainingNtBb_20TacticalTrainingDataNtNtCs3p7QKI2gXgo_5serde2de11Deserialize11deserializeNtB5_27TacticalTrainingDataVisitorNtB1o_7Visitor9visit_mapINtNtCs6miviSZGsq6_10serde_json2de9MapAccessNtNtB3e_4read7StrReadEEs2_0Bd_
FN:182,_RNCINvXNvXs0_NtCsh06HHTBymxI_19chess_vector_engine8trainingNtBb_20TacticalTrainingDataNtNtCs3p7QKI2gXgo_5serde2de11Deserialize11deserializeNtB5_27TacticalTrainingDataVisitorNtB1o_7Visitor9visit_mapINtNtCs6miviSZGsq6_10serde_json2de9MapAccessNtNtB3e_4read7StrReadEEs3_0Bd_
FN:185,_RNCINvXNvXs0_NtCsh06HHTBymxI_19chess_vector_engine8trainingNtBb_20TacticalTrainingDataNtNtCs3p7QKI2gXgo_5serde2de11Deserialize11deserializeNtB5_27TacticalTrainingDataVisitorNtB1o_7Visitor9visit_mapINtNtCs6miviSZGsq6_10serde_json2de9MapAccessNtNtB3e_4read7StrReadEEs4_0Bd_
FN:173,_RNCINvXNvXs0_NtCsh06HHTBymxI_19chess_vector_engine8trainingNtBb_20TacticalTrainingDataNtNtCs3p7QKI2gXgo_5serde2de11Deserialize11deserializeNtB5_27TacticalTrainingDataVisitorNtB1o_7Visitor9visit_mapINtNtCs6miviSZGsq6_10serde_json2de9MapAccessNtNtB3e_4read7StrReadEEs_0Bd_
FN:1554,_RNCINvXNvXsb_NtCsh06HHTBymxI_19chess_vector_engine8trainingNtBb_12TrainingDataNtNtCs3p7QKI2gXgo_5serde2de11Deserialize11deserializeNtB5_19TrainingDataVisitorNtB1g_7Visitor9visit_mapINtNtCs6miviSZGsq6_10serde_json2de9MapAccessNtNtB2Y_4read7StrReadEE0Bd_
FN:1557,_RNCINvXNvXsb_NtCsh06HHTBymxI_19chess_vector_engine8trainingNtBb_12TrainingDataNtNtCs3p7QKI2gXgo_5serde2de11Deserialize11deserializeNtB5_19TrainingDataVisitorNtB1g_7Visitor9visit_mapINtNtCs6miviSZGsq6_10serde_json2de9MapAccessNtNtB2Y_4read7StrReadEEs0_0Bd_
FN:1561,_RNCINvXNvXsb_NtCsh06HHTBymxI_19chess_vector_engine8trainingNtBb_12TrainingDataNtNtCs3p7QKI2gXgo_5serde2de11Deserialize11deserializeNtB5_19TrainingDataVisitorNtB1g_7Visitor9visit_mapINtNtCs6miviSZGsq6_10serde_json2de9MapAccessNtNtB2Y_4read7StrReadEEs1_0Bd_
FN:1556,_RNCINvXNvXsb_NtCsh06HHTBymxI_19chess_vector_engine8trainingNtBb_12TrainingDataNtNtCs3p7QKI2gXgo_5serde2de11Deserialize11deserializeNtB5_19TrainingDataVisitorNtB1g_7Visitor9visit_mapINtNtCs6miviSZGsq6_10serde_json2de9MapAccessNtNtB2Y_4read7StrReadEEs_0Bd_
FN:965,_RNCNvMs7_NtCsh06HHTBymxI_19chess_vector_engine8trainingNtB7_15TrainingDataset12next_game_id0B9_
FN:991,_RNCNvMs7_NtCsh06HHTBymxI_19chess_vector_engine8trainingNtB7_15TrainingDataset16deduplicate_fast0B9_
FN:1120,_RNCNvMs7_NtCsh06HHTBymxI_19chess_vector_engine8trainingNtB7_15TrainingDataset20deduplicate_parallel0B9_
FN:1165,_RNCNvMs7_NtCsh06HHTBymxI_19chess_vector_engine8trainingNtB7_15TrainingDataset20deduplicate_parallels0_0B9_
FN:1129,_RNCNvMs7_NtCsh06HHTBymxI_19chess_vector_engine8trainingNtB7_15TrainingDataset20deduplicate_parallels_0B9_
FN:1053,_RNCNvMs7_NtCsh06HHTBymxI_19chess_vector_engine8trainingNtB7_15TrainingDataset28deduplicate_similarity_based0B9_
FN:1087,_RNCNvMs7_NtCsh06HHTBymxI_19chess_vector_engine8trainingNtB7_15TrainingDataset28deduplicate_similarity_baseds0_0B9_
FN:1058,_RNCNvMs7_NtCsh06HHTBymxI_19chess_vector_engine8trainingNtB7_15TrainingDataset28deduplicate_similarity_baseds_0B9_
FN:1992,_RNCNvMsc_NtCsh06HHTBymxI_19chess_vector_engine8trainingNtB7_20TacticalPuzzleParser37load_into_engine_incremental_parallel0B9_
FN:2193,_RNvNtNtCsh06HHTBymxI_19chess_vector_engine8training5testss_18test_deduplication
FN:2285,_RNvNtNtCsh06HHTBymxI_19chess_vector_engine8training5testss_21test_engine_evaluator
FN:2152,_RNvNtNtCsh06HHTBymxI_19chess_vector_engine8training5testss_22test_add_training_data
FN:2424,_RNvNtNtCsh06HHTBymxI_19chess_vector_engine8training5testss_24test_add_position_method
FN:2216,_RNvNtNtCsh06HHTBymxI_19chess_vector_engine8training5testss_26test_dataset_serialization
FN:2385,_RNvNtNtCsh06HHTBymxI_19chess_vector_engine8training5testss_26test_save_load_incremental
FN:2169,_RNvNtNtCsh06HHTBymxI_19chess_vector_engine8training5testss_29test_chess_engine_integration
FN:2333,_RNvNtNtCsh06HHTBymxI_19chess_vector_engine8training5testss_30test_multithreading_operations
FN:2146,_RNvNtNtCsh06HHTBymxI_19chess_vector_engine8training5testss_30test_training_dataset_creation
FN:2242,_RNvNtNtCsh06HHTBymxI_19chess_vector_engine8training5testss_31test_tactical_puzzle_processing
FN:2266,_RNvNtNtCsh06HHTBymxI_19chess_vector_engine8training5testss_32test_tactical_puzzle_invalid_fen
FN:2498,_RNvNtNtCsh06HHTBymxI_19chess_vector_engine8training5testss_34test_tactical_puzzle_serialization
FN:2312,_RNvNtNtCsh06HHTBymxI_19chess_vector_engine8training5testss_34test_tactical_training_integration
FN:2354,_RNvNtNtCsh06HHTBymxI_19chess_vector_engine8training5testss_35test_incremental_dataset_operations
FN:2437,_RNvNtNtCsh06HHTBymxI_19chess_vector_engine8training5testss_35test_incremental_save_deduplication
FN:2524,_RNvNtNtCsh06HHTBymxI_19chess_vector_engine8training5testss_37test_tactical_puzzle_incremental_save
FN:2459,_RNvNtNtCsh06HHTBymxI_19chess_vector_engine8training5testss_40test_tactical_puzzle_incremental_loading
FN:2557,_RNvNtNtCsh06HHTBymxI_19chess_vector_engine8training5testss_46test_tactical_puzzle_incremental_deduplication
FN:969,_RNvMs7_NtCsh06HHTBymxI_19chess_vector_engine8trainingNtB5_15TrainingDataset11deduplicate
FN:954,_RNvMs7_NtCsh06HHTBymxI_19chess_vector_engine8trainingNtB5_15TrainingDataset12add_position
FN:964,_RNvMs7_NtCsh06HHTBymxI_19chess_vector_engine8trainingNtB5_15TrainingDataset12next_game_id
FN:716,_RNvMs7_NtCsh06HHTBymxI_19chess_vector_engine8trainingNtB5_15TrainingDataset12train_engine
FN:980,_RNvMs7_NtCsh06HHTBymxI_19chess_vector_engine8trainingNtB5_15TrainingDataset16deduplicate_fast
FN:1183,_RNvMs7_NtCsh06HHTBymxI_19chess_vector_engine8trainingNtB5_15TrainingDataset17cosine_similarity
FN:1105,_RNvMs7_NtCsh06HHTBymxI_19chess_vector_engine8trainingNtB5_15TrainingDataset20deduplicate_parallel
FN:1005,_RNvMs7_NtCsh06HHTBymxI_19chess_vector_engine8trainingNtB5_15TrainingDataset21merge_and_deduplicate
FN:1038,_RNvMs7_NtCsh06HHTBymxI_19chess_vector_engine8trainingNtB5_15TrainingDataset28deduplicate_similarity_based
FN:634,_RNvMs7_NtCsh06HHTBymxI_19chess_vector_engine8trainingNtB5_15TrainingDataset3new
FN:804,_RNvMs7_NtCsh06HHTBymxI_19chess_vector_engine8trainingNtB5_15TrainingDataset5merge
FN:1444,_RNvMs9_NtCsh06HHTBymxI_19chess_vector_engine8trainingNtB5_15EngineEvaluator17evaluate_accuracy
FN:1439,_RNvMs9_NtCsh06HHTBymxI_19chess_vector_engine8trainingNtB5_15EngineEvaluator3new
FN:1872,_RNvMsc_NtCsh06HHTBymxI_19chess_vector_engine8trainingNtB5_20TacticalPuzzleParser16load_into_engine
FN:1897,_RNvMsc_NtCsh06HHTBymxI_19chess_vector_engine8trainingNtB5_20TacticalPuzzleParser28load_into_engine_incremental
FN:1822,_RNvMsc_NtCsh06HHTBymxI_19chess_vector_engine8trainingNtB5_20TacticalPuzzleParser31convert_puzzle_to_training_data
FN:1977,_RNvMsc_NtCsh06HHTBymxI_19chess_vector_engine8trainingNtB5_20TacticalPuzzleParser37load_into_engine_incremental_parallel
FN:1923,_RNvMsc_NtCsh06HHTBymxI_19chess_vector_engine8trainingNtB5_20TacticalPuzzleParser39load_into_engine_incremental_sequential
FN:119,_RNvXNvXs0_NtCsh06HHTBymxI_19chess_vector_engine8trainingNtB8_20TacticalTrainingDataNtNtCs3p7QKI2gXgo_5serde2de11Deserialize11deserializeNtB2_27TacticalTrainingDataVisitorNtB1l_7Visitor9expecting
FN:1509,_RNvXNvXsb_NtCsh06HHTBymxI_19chess_vector_engine8trainingNtB8_12TrainingDataNtNtCs3p7QKI2gXgo_5serde2de11Deserialize11deserializeNtB2_19TrainingDataVisitorNtB1d_7Visitor9expecting
FNDA:0,_RINvMs7_NtCsh06HHTBymxI_19chess_vector_engine8trainingNtB6_15TrainingDataset13load_from_pgnpEB8_
FNDA:0,_RINvMsc_NtCsh06HHTBymxI_19chess_vector_engine8trainingNtB6_20TacticalPuzzleParser18parse_csv_parallelpEB8_
FNDA:0,_RINvMsc_NtCsh06HHTBymxI_19chess_vector_engine8trainingNtB6_20TacticalPuzzleParser20parse_csv_sequentialpEB8_
FNDA:0,_RINvMsc_NtCsh06HHTBymxI_19chess_vector_engine8trainingNtB6_20TacticalPuzzleParser26parse_and_load_incrementalpEB8_
FNDA:0,_RINvMsc_NtCsh06HHTBymxI_19chess_vector_engine8trainingNtB6_20TacticalPuzzleParser9parse_csvpEB8_
FNDA:0,_RNCINvMsc_NtCsh06HHTBymxI_19chess_vector_engine8trainingNtB8_20TacticalPuzzleParser18parse_csv_parallelpE0Ba_
FNDA:0,_RNCNCNvMs3_NtCsh06HHTBymxI_19chess_vector_engine8trainingNtB9_18StockfishEvaluator23evaluate_batch_parallel00Bb_
FNDA:0,_RNCNvMs3_NtCsh06HHTBymxI_19chess_vector_engine8trainingNtB7_18StockfishEvaluator23evaluate_batch_parallel0B9_
FNDA:0,_RNCNvMs6_NtCsh06HHTBymxI_19chess_vector_engine8trainingNtB7_13StockfishPool23evaluate_batch_parallel0B9_
FNDA:0,_RNvMs1_NtCsh06HHTBymxI_19chess_vector_engine8trainingNtB5_13GameExtractor3new
FNDA:0,_RNvMs3_NtCsh06HHTBymxI_19chess_vector_engine8trainingNtB5_18StockfishEvaluator14evaluate_batch
FNDA:0,_RNvMs3_NtCsh06HHTBymxI_19chess_vector_engine8trainingNtB5_18StockfishEvaluator17evaluate_position
FNDA:0,_RNvMs3_NtCsh06HHTBymxI_19chess_vector_engine8trainingNtB5_18StockfishEvaluator23evaluate_batch_parallel
FNDA:0,_RNvMs3_NtCsh06HHTBymxI_19chess_vector_engine8trainingNtB5_18StockfishEvaluator3new
FNDA:0,_RNvMs4_NtCsh06HHTBymxI_19chess_vector_engine8trainingNtB5_16StockfishProcess12send_command
FNDA:0,_RNvMs4_NtCsh06HHTBymxI_19chess_vector_engine8trainingNtB5_16StockfishProcess14wait_for_ready
FNDA:0,_RNvMs4_NtCsh06HHTBymxI_19chess_vector_engine8trainingNtB5_16StockfishProcess17evaluate_position
FNDA:0,_RNvMs4_NtCsh06HHTBymxI_19chess_vector_engine8trainingNtB5_16StockfishProcess3new
FNDA:0,_RNvMs6_NtCsh06HHTBymxI_19chess_vector_engine8trainingNtB5_13StockfishPool17evaluate_position
FNDA:0,_RNvMs6_NtCsh06HHTBymxI_19chess_vector_engine8trainingNtB5_13StockfishPool23evaluate_batch_parallel
FNDA:0,_RNvMs6_NtCsh06HHTBymxI_19chess_vector_engine8trainingNtB5_13StockfishPool3new
FNDA:0,_RNvMs7_NtCsh06HHTBymxI_19chess_vector_engine8trainingNtB5_15TrainingDataset23evaluate_with_stockfish
FNDA:0,_RNvMs7_NtCsh06HHTBymxI_19chess_vector_engine8trainingNtB5_15TrainingDataset32evaluate_with_stockfish_parallel
FNDA:0,_RNvMs7_NtCsh06HHTBymxI_19chess_vector_engine8trainingNtB5_15TrainingDataset5split
FNDA:0,_RNvMs8_NtCsh06HHTBymxI_19chess_vector_engine8trainingNtB5_15SelfPlayTrainer16play_single_game
FNDA:0,_RNvMs8_NtCsh06HHTBymxI_19chess_vector_engine8trainingNtB5_15SelfPlayTrainer18get_random_opening
FNDA:0,_RNvMs8_NtCsh06HHTBymxI_19chess_vector_engine8trainingNtB5_15SelfPlayTrainer22generate_training_data
FNDA:0,_RNvMs8_NtCsh06HHTBymxI_19chess_vector_engine8trainingNtB5_15SelfPlayTrainer28select_move_with_exploration
FNDA:0,_RNvMs8_NtCsh06HHTBymxI_19chess_vector_engine8trainingNtB5_15SelfPlayTrainer28select_move_with_temperature
FNDA:0,_RNvMs8_NtCsh06HHTBymxI_19chess_vector_engine8trainingNtB5_15SelfPlayTrainer3new
FNDA:0,_RNvMsc_NtCsh06HHTBymxI_19chess_vector_engine8trainingNtB5_20TacticalPuzzleParser16parse_csv_fields
FNDA:0,_RNvMsc_NtCsh06HHTBymxI_19chess_vector_engine8trainingNtB5_20TacticalPuzzleParser16parse_csv_record
FNDA:0,_RNvXNtCsh06HHTBymxI_19chess_vector_engine8trainingNtB2_14SelfPlayConfigNtNtCs9sjCchOt1K7_4core7default7Default7default
FNDA:0,_RNvXs2_NtCsh06HHTBymxI_19chess_vector_engine8trainingNtB5_13GameExtractorNtNtCshhoJQFGHStH_10pgn_reader7visitor7Visitor10begin_game
FNDA:0,_RNvXs2_NtCsh06HHTBymxI_19chess_vector_engine8trainingNtB5_13GameExtractorNtNtCshhoJQFGHStH_10pgn_reader7visitor7Visitor15begin_variation
FNDA:0,_RNvXs2_NtCsh06HHTBymxI_19chess_vector_engine8trainingNtB5_13GameExtractorNtNtCshhoJQFGHStH_10pgn_reader7visitor7Visitor3san
FNDA:0,_RNvXs2_NtCsh06HHTBymxI_19chess_vector_engine8trainingNtB5_13GameExtractorNtNtCshhoJQFGHStH_10pgn_reader7visitor7Visitor6header
FNDA:0,_RNvXs2_NtCsh06HHTBymxI_19chess_vector_engine8trainingNtB5_13GameExtractorNtNtCshhoJQFGHStH_10pgn_reader7visitor7Visitor8end_game
FNDA:0,_RNvXs5_NtCsh06HHTBymxI_19chess_vector_engine8trainingNtB5_16StockfishProcessNtNtNtCs9sjCchOt1K7_4core3ops4drop4Drop4drop
FNDA:1,_RINvMs7_NtCsh06HHTBymxI_19chess_vector_engine8trainingNtB6_15TrainingDataset15load_and_appendRNtNtCseJswNlh1fGO_3std4path7PathBufEB8_
FNDA:2,_RINvMs7_NtCsh06HHTBymxI_19chess_vector_engine8trainingNtB6_15TrainingDataset16save_append_onlyRNtNtCseJswNlh1fGO_3std4path4PathEB8_
FNDA:3,_RINvMs7_NtCsh06HHTBymxI_19chess_vector_engine8trainingNtB6_15TrainingDataset16save_incrementalRNtNtCseJswNlh1fGO_3std4path7PathBufEB8_
FNDA:0,_RINvMs7_NtCsh06HHTBymxI_19chess_vector_engine8trainingNtB6_15TrainingDataset25save_incremental_no_dedupRNtNtCseJswNlh1fGO_3std4path4PathEB8_
FNDA:2,_RINvMs7_NtCsh06HHTBymxI_19chess_vector_engine8trainingNtB6_15TrainingDataset27save_incremental_full_mergeRNtNtCseJswNlh1fGO_3std4path4PathEB8_
FNDA:3,_RINvMs7_NtCsh06HHTBymxI_19chess_vector_engine8trainingNtB6_15TrainingDataset29save_incremental_with_optionsRNtNtCseJswNlh1fGO_3std4path7PathBufEB8_
FNDA:2,_RINvMs7_NtCsh06HHTBymxI_19chess_vector_engine8trainingNtB6_15TrainingDataset4loadRNtNtCseJswNlh1fGO_3std4path4PathEB8_
FNDA:4,_RINvMs7_NtCsh06HHTBymxI_19chess_vector_engine8trainingNtB6_15TrainingDataset4loadRNtNtCseJswNlh1fGO_3std4path7PathBufEB8_
FNDA:1,_RINvMs7_NtCsh06HHTBymxI_19chess_vector_engine8trainingNtB6_15TrainingDataset4saveRNtNtCseJswNlh1fGO_3std4path4PathEB8_
FNDA:2,_RINvMs7_NtCsh06HHTBymxI_19chess_vector_engine8trainingNtB6_15TrainingDataset4saveRNtNtCseJswNlh1fGO_3std4path7PathBufEB8_
FNDA:2,_RINvMsc_NtCsh06HHTBymxI_19chess_vector_engine8trainingNtB6_20TacticalPuzzleParser21load_tactical_puzzlesRNtNtCseJswNlh1fGO_3std4path4PathEB8_
FNDA:3,_RINvMsc_NtCsh06HHTBymxI_19chess_vector_engine8trainingNtB6_20TacticalPuzzleParser21load_tactical_puzzlesRNtNtCseJswNlh1fGO_3std4path7PathBufEB8_
FNDA:0,_RINvMsc_NtCsh06HHTBymxI_19chess_vector_engine8trainingNtB6_20TacticalPuzzleParser21save_tactical_puzzlesRNtNtCseJswNlh1fGO_3std4path4PathEB8_
FNDA:3,_RINvMsc_NtCsh06HHTBymxI_19chess_vector_engine8trainingNtB6_20TacticalPuzzleParser21save_tactical_puzzlesRNtNtCseJswNlh1fGO_3std4path7PathBufEB8_
FNDA:2,_RINvMsc_NtCsh06HHTBymxI_19chess_vector_engine8trainingNtB6_20TacticalPuzzleParser33save_tactical_puzzles_incrementalRNtNtCseJswNlh1fGO_3std4path7PathBufEB8_
FNDA:6,_RINvXNvXs0_NtCsh06HHTBymxI_19chess_vector_engine8trainingNtB9_20TacticalTrainingDataNtNtCs3p7QKI2gXgo_5serde2de11Deserialize11deserializeNtB3_27TacticalTrainingDataVisitorNtB1m_7Visitor9visit_mapINtNtCs6miviSZGsq6_10serde_json2de9MapAccessNtNtB3c_4read7StrReadEEBb_
FNDA:10,_RINvXNvXsb_NtCsh06HHTBymxI_19chess_vector_engine8trainingNtB9_12TrainingDataNtNtCs3p7QKI2gXgo_5serde2de11Deserialize11deserializeNtB3_19TrainingDataVisitorNtB1e_7Visitor9visit_mapINtNtCs6miviSZGsq6_10serde_json2de9MapAccessNtNtB2W_4read7StrReadEEBb_
FNDA:6,_RINvXs0_NtCsh06HHTBymxI_19chess_vector_engine8trainingNtB6_20TacticalTrainingDataNtNtCs3p7QKI2gXgo_5serde2de11Deserialize11deserializeQINtNtCs6miviSZGsq6_10serde_json2de12DeserializerNtNtB2e_4read7StrReadEEB8_
FNDA:6,_RINvXs_NtCsh06HHTBymxI_19chess_vector_engine8trainingNtB5_20TacticalTrainingDataNtNtCs3p7QKI2gXgo_5serde3ser9Serialize9serializeQINtNtCs6miviSZGsq6_10serde_json3ser10SerializerQINtNtCs6bBekJvxEMJ_5alloc3vec3VechENtB26_15PrettyFormatterEEB7_
FNDA:1,_RINvXsa_NtCsh06HHTBymxI_19chess_vector_engine8trainingNtB6_12TrainingDataNtNtCs3p7QKI2gXgo_5serde3ser9Serialize9serializeQINtNtCs6miviSZGsq6_10serde_json3ser10SerializerQINtNtCs6bBekJvxEMJ_5alloc3vec3VechEEEB8_
FNDA:7,_RINvXsa_NtCsh06HHTBymxI_19chess_vector_engine8trainingNtB6_12TrainingDataNtNtCs3p7QKI2gXgo_5serde3ser9Serialize9serializeQINtNtCs6miviSZGsq6_10serde_json3ser10SerializerQINtNtCs6bBekJvxEMJ_5alloc3vec3VechENtB1Z_15PrettyFormatterEEB8_
FNDA:10,_RINvXsb_NtCsh06HHTBymxI_19chess_vector_engine8trainingNtB6_12TrainingDataNtNtCs3p7QKI2gXgo_5serde2de11Deserialize11deserializeQINtNtCs6miviSZGsq6_10serde_json2de12DeserializerNtNtB26_4read7StrReadEEB8_
FNDA:2,_RNCINvMsc_NtCsh06HHTBymxI_19chess_vector_engine8trainingNtB8_20TacticalPuzzleParser33save_tactical_puzzles_incrementalRNtNtCseJswNlh1fGO_3std4path7PathBufE0Ba_
FNDA:0,_RNCINvXNvXs0_NtCsh06HHTBymxI_19chess_vector_engine8trainingNtBb_20TacticalTrainingDataNtNtCs3p7QKI2gXgo_5serde2de11Deserialize11deserializeNtB5_27TacticalTrainingDataVisitorNtB1o_7Visitor9visit_mapINtNtCs6miviSZGsq6_10serde_json2de9MapAccessNtNtB3e_4read7StrReadEE0Bd_
FNDA:0,_RNCINvXNvXs0_NtCsh06HHTBymxI_19chess_vector_engine8trainingNtBb_20TacticalTrainingDataNtNtCs3p7QKI2gXgo_5serde2de11Deserialize11deserializeNtB5_27TacticalTrainingDataVisitorNtB1o_7Visitor9visit_mapINtNtCs6miviSZGsq6_10serde_json2de9MapAccessNtNtB3e_4read7StrReadEEs0_0Bd_
FNDA:0,_RNCINvXNvXs0_NtCsh06HHTBymxI_19chess_vector_engine8trainingNtBb_20TacticalTrainingDataNtNtCs3p7QKI2gXgo_5serde2de11Deserialize11deserializeNtB5_27TacticalTrainingDataVisitorNtB1o_7Visitor9visit_mapINtNtCs6miviSZGsq6_10serde_json2de9MapAccessNtNtB3e_4read7StrReadEEs1_0Bd_
FNDA:0,_RNCINvXNvXs0_NtCsh06HHTBymxI_19chess_vector_engine8trainingNtBb_20TacticalTrainingDataNtNtCs3p7QKI2gXgo_5serde2de11Deserialize11deserializeNtB5_27TacticalTrainingDataVisitorNtB1o_7Visitor9visit_mapINtNtCs6miviSZGsq6_10serde_json2de9MapAccessNtNtB3e_4read7StrReadEEs2_0Bd_
FNDA:0,_RNCINvXNvXs0_NtCsh06HHTBymxI_19chess_vector_engine8trainingNtBb_20TacticalTrainingDataNtNtCs3p7QKI2gXgo_5serde2de11Deserialize11deserializeNtB5_27TacticalTrainingDataVisitorNtB1o_7Visitor9visit_mapINtNtCs6miviSZGsq6_10serde_json2de9MapAccessNtNtB3e_4read7StrReadEEs3_0Bd_
FNDA:0,_RNCINvXNvXs0_NtCsh06HHTBymxI_19chess_vector_engine8trainingNtBb_20TacticalTrainingDataNtNtCs3p7QKI2gXgo_5serde2de11Deserialize11deserializeNtB5_27TacticalTrainingDataVisitorNtB1o_7Visitor9visit_mapINtNtCs6miviSZGsq6_10serde_json2de9MapAccessNtNtB3e_4read7StrReadEEs4_0Bd_
FNDA:0,_RNCINvXNvXs0_NtCsh06HHTBymxI_19chess_vector_engine8trainingNtBb_20TacticalTrainingDataNtNtCs3p7QKI2gXgo_5serde2de11Deserialize11deserializeNtB5_27TacticalTrainingDataVisitorNtB1o_7Visitor9visit_mapINtNtCs6miviSZGsq6_10serde_json2de9MapAccessNtNtB3e_4read7StrReadEEs_0Bd_
FNDA:0,_RNCINvXNvXsb_NtCsh06HHTBymxI_19chess_vector_engine8trainingNtBb_12TrainingDataNtNtCs3p7QKI2gXgo_5serde2de11Deserialize11deserializeNtB5_19TrainingDataVisitorNtB1g_7Visitor9visit_mapINtNtCs6miviSZGsq6_10serde_json2de9MapAccessNtNtB2Y_4read7StrReadEE0Bd_
FNDA:0,_RNCINvXNvXsb_NtCsh06HHTBymxI_19chess_vector_engine8trainingNtBb_12TrainingDataNtNtCs3p7QKI2gXgo_5serde2de11Deserialize11deserializeNtB5_19TrainingDataVisitorNtB1g_7Visitor9visit_mapINtNtCs6miviSZGsq6_10serde_json2de9MapAccessNtNtB2Y_4read7StrReadEEs0_0Bd_
FNDA:0,_RNCINvXNvXsb_NtCsh06HHTBymxI_19chess_vector_engine8trainingNtBb_12TrainingDataNtNtCs3p7QKI2gXgo_5serde2de11Deserialize11deserializeNtB5_19TrainingDataVisitorNtB1g_7Visitor9visit_mapINtNtCs6miviSZGsq6_10serde_json2de9MapAccessNtNtB2Y_4read7StrReadEEs1_0Bd_
FNDA:0,_RNCINvXNvXsb_NtCsh06HHTBymxI_19chess_vector_engine8trainingNtBb_12TrainingDataNtNtCs3p7QKI2gXgo_5serde2de11Deserialize11deserializeNtB5_19TrainingDataVisitorNtB1g_7Visitor9visit_mapINtNtCs6miviSZGsq6_10serde_json2de9MapAccessNtNtB2Y_4read7StrReadEEs_0Bd_
FNDA:3,_RNCNvMs7_NtCsh06HHTBymxI_19chess_vector_engine8trainingNtB7_15TrainingDataset12next_game_id0B9_
FNDA:0,_RNCNvMs7_NtCsh06HHTBymxI_19chess_vector_engine8trainingNtB7_15TrainingDataset16deduplicate_fast0B9_
FNDA:10,_RNCNvMs7_NtCsh06HHTBymxI_19chess_vector_engine8trainingNtB7_15TrainingDataset20deduplicate_parallel0B9_
FNDA:10,_RNCNvMs7_NtCsh06HHTBymxI_19chess_vector_engine8trainingNtB7_15TrainingDataset20deduplicate_parallels0_0B9_
FNDA:2,_RNCNvMs7_NtCsh06HHTBymxI_19chess_vector_engine8trainingNtB7_15TrainingDataset20deduplicate_parallels_0B9_
FNDA:0,_RNCNvMs7_NtCsh06HHTBymxI_19chess_vector_engine8trainingNtB7_15TrainingDataset28deduplicate_similarity_based0B9_
FNDA:5,_RNCNvMs7_NtCsh06HHTBymxI_19chess_vector_engine8trainingNtB7_15TrainingDataset28deduplicate_similarity_baseds0_0B9_
FNDA:5,_RNCNvMs7_NtCsh06HHTBymxI_19chess_vector_engine8trainingNtB7_15TrainingDataset28deduplicate_similarity_baseds_0B9_
FNDA:0,_RNCNvMsc_NtCsh06HHTBymxI_19chess_vector_engine8trainingNtB7_20TacticalPuzzleParser37load_into_engine_incremental_parallel0B9_
FNDA:1,_RNvNtNtCsh06HHTBymxI_19chess_vector_engine8training5testss_18test_deduplication
FNDA:1,_RNvNtNtCsh06HHTBymxI_19chess_vector_engine8training5testss_21test_engine_evaluator
FNDA:1,_RNvNtNtCsh06HHTBymxI_19chess_vector_engine8training5testss_22test_add_training_data
FNDA:1,_RNvNtNtCsh06HHTBymxI_19chess_vector_engine8training5testss_24test_add_position_method
FNDA:1,_RNvNtNtCsh06HHTBymxI_19chess_vector_engine8training5testss_26test_dataset_serialization
FNDA:1,_RNvNtNtCsh06HHTBymxI_19chess_vector_engine8training5testss_26test_save_load_incremental
FNDA:1,_RNvNtNtCsh06HHTBymxI_19chess_vector_engine8training5testss_29test_chess_engine_integration
FNDA:1,_RNvNtNtCsh06HHTBymxI_19chess_vector_engine8training5testss_30test_multithreading_operations
FNDA:1,_RNvNtNtCsh06HHTBymxI_19chess_vector_engine8training5testss_30test_training_dataset_creation
FNDA:1,_RNvNtNtCsh06HHTBymxI_19chess_vector_engine8training5testss_31test_tactical_puzzle_processing
FNDA:1,_RNvNtNtCsh06HHTBymxI_19chess_vector_engine8training5testss_32test_tactical_puzzle_invalid_fen
FNDA:1,_RNvNtNtCsh06HHTBymxI_19chess_vector_engine8training5testss_34test_tactical_puzzle_serialization
FNDA:1,_RNvNtNtCsh06HHTBymxI_19chess_vector_engine8training5testss_34test_tactical_training_integration
FNDA:1,_RNvNtNtCsh06HHTBymxI_19chess_vector_engine8training5testss_35test_incremental_dataset_operations
FNDA:1,_RNvNtNtCsh06HHTBymxI_19chess_vector_engine8training5testss_35test_incremental_save_deduplication
FNDA:1,_RNvNtNtCsh06HHTBymxI_19chess_vector_engine8training5testss_37test_tactical_puzzle_incremental_save
FNDA:1,_RNvNtNtCsh06HHTBymxI_19chess_vector_engine8training5testss_40test_tactical_puzzle_incremental_loading
FNDA:1,_RNvNtNtCsh06HHTBymxI_19chess_vector_engine8training5testss_46test_tactical_puzzle_incremental_deduplication
FNDA:1,_RNvMs7_NtCsh06HHTBymxI_19chess_vector_engine8trainingNtB5_15TrainingDataset11deduplicate
FNDA:11,_RNvMs7_NtCsh06HHTBymxI_19chess_vector_engine8trainingNtB5_15TrainingDataset12add_position
FNDA:1,_RNvMs7_NtCsh06HHTBymxI_19chess_vector_engine8trainingNtB5_15TrainingDataset12next_game_id
FNDA:1,_RNvMs7_NtCsh06HHTBymxI_19chess_vector_engine8trainingNtB5_15TrainingDataset12train_engine
FNDA:0,_RNvMs7_NtCsh06HHTBymxI_19chess_vector_engine8trainingNtB5_15TrainingDataset16deduplicate_fast
FNDA:13,_RNvMs7_NtCsh06HHTBymxI_19chess_vector_engine8trainingNtB5_15TrainingDataset17cosine_similarity
FNDA:1,_RNvMs7_NtCsh06HHTBymxI_19chess_vector_engine8trainingNtB5_15TrainingDataset20deduplicate_parallel
FNDA:2,_RNvMs7_NtCsh06HHTBymxI_19chess_vector_engine8trainingNtB5_15TrainingDataset21merge_and_deduplicate
FNDA:1,_RNvMs7_NtCsh06HHTBymxI_19chess_vector_engine8trainingNtB5_15TrainingDataset28deduplicate_similarity_based
FNDA:17,_RNvMs7_NtCsh06HHTBymxI_19chess_vector_engine8trainingNtB5_15TrainingDataset3new
FNDA:1,_RNvMs7_NtCsh06HHTBymxI_19chess_vector_engine8trainingNtB5_15TrainingDataset5merge
FNDA:1,_RNvMs9_NtCsh06HHTBymxI_19chess_vector_engine8trainingNtB5_15EngineEvaluator17evaluate_accuracy
FNDA:1,_RNvMs9_NtCsh06HHTBymxI_19chess_vector_engine8trainingNtB5_15EngineEvaluator3new
FNDA:1,_RNvMsc_NtCsh06HHTBymxI_19chess_vector_engine8trainingNtB5_20TacticalPuzzleParser16load_into_engine
FNDA:1,_RNvMsc_NtCsh06HHTBymxI_19chess_vector_engine8trainingNtB5_20TacticalPuzzleParser28load_into_engine_incremental
FNDA:2,_RNvMsc_NtCsh06HHTBymxI_19chess_vector_engine8trainingNtB5_20TacticalPuzzleParser31convert_puzzle_to_training_data
FNDA:0,_RNvMsc_NtCsh06HHTBymxI_19chess_vector_engine8trainingNtB5_20TacticalPuzzleParser37load_into_engine_incremental_parallel
FNDA:1,_RNvMsc_NtCsh06HHTBymxI_19chess_vector_engine8trainingNtB5_20TacticalPuzzleParser39load_into_engine_incremental_sequential
FNDA:0,_RNvXNvXs0_NtCsh06HHTBymxI_19chess_vector_engine8trainingNtB8_20TacticalTrainingDataNtNtCs3p7QKI2gXgo_5serde2de11Deserialize11deserializeNtB2_27TacticalTrainingDataVisitorNtB1l_7Visitor9expecting
FNDA:0,_RNvXNvXsb_NtCsh06HHTBymxI_19chess_vector_engine8trainingNtB8_12TrainingDataNtNtCs3p7QKI2gXgo_5serde2de11Deserialize11deserializeNtB2_19TrainingDataVisitorNtB1d_7Visitor9expecting
FNF:115
FNH:57
DA:33,0
DA:34,0
DA:35,0
DA:36,0
DA:37,0
DA:38,0
DA:39,0
DA:40,0
DA:41,0
DA:42,0
DA:91,6
DA:92,6
DA:93,6
DA:94,6
DA:96,6
DA:97,6
DA:98,6
DA:99,6
DA:100,6
DA:101,6
DA:102,6
DA:103,6
DA:107,6
DA:108,6
DA:109,6
DA:110,6
DA:119,0
DA:120,0
DA:121,0
DA:123,6
DA:124,6
DA:125,6
DA:126,6
DA:127,6
DA:128,6
DA:129,6
DA:130,6
DA:131,6
DA:133,36
DA:134,30
DA:135,30
DA:136,6
DA:137,0
DA:138,6
DA:139,6
DA:141,24
DA:142,6
DA:143,0
DA:144,6
DA:145,6
DA:147,18
DA:148,6
DA:149,0
DA:150,6
DA:151,6
DA:153,12
DA:154,6
DA:155,0
DA:156,6
DA:157,6
DA:159,6
DA:160,6
DA:161,0
DA:162,6
DA:163,6
DA:166,0
DA:171,6
DA:172,6
DA:173,6
DA:174,6
DA:175,6
DA:176,6
DA:177,6
DA:178,6
DA:179,6
DA:181,6
DA:182,6
DA:184,6
DA:185,6
DA:187,6
DA:188,6
DA:189,6
DA:190,6
DA:191,6
DA:192,6
DA:193,6
DA:194,6
DA:204,6
DA:205,6
DA:218,0
DA:219,0
DA:220,0
DA:221,0
DA:222,0
DA:223,0
DA:224,0
DA:225,0
DA:226,0
DA:232,0
DA:233,0
DA:234,0
DA:235,0
DA:236,0
DA:238,0
DA:240,0
DA:241,0
DA:242,0
DA:243,0
DA:244,0
DA:245,0
DA:246,0
DA:247,0
DA:248,0
DA:249,0
DA:250,0
DA:251,0
DA:252,0
DA:253,0
DA:254,0
DA:255,0
DA:256,0
DA:257,0
DA:258,0
DA:259,0
DA:260,0
DA:261,0
DA:262,0
DA:263,0
DA:264,0
DA:265,0
DA:266,0
DA:267,0
DA:268,0
DA:269,0
DA:275,0
DA:276,0
DA:277,0
DA:280,0
DA:282,0
DA:283,0
DA:284,0
DA:286,0
DA:295,0
DA:296,0
DA:297,0
DA:300,0
DA:301,0
DA:302,0
DA:303,0
DA:304,0
DA:305,0
DA:307,0
DA:308,0
DA:309,0
DA:310,0
DA:311,0
DA:315,0
DA:316,0
DA:317,0
DA:318,0
DA:319,0
DA:321,0
DA:322,0
DA:325,0
DA:326,0
DA:327,0
DA:328,0
DA:329,0
DA:330,0
DA:331,0
DA:332,0
DA:333,0
DA:334,0
DA:336,0
DA:337,0
DA:338,0
DA:339,0
DA:340,0
DA:341,0
DA:342,0
DA:343,0
DA:346,0
DA:347,0
DA:350,0
DA:351,0
DA:352,0
DA:353,0
DA:354,0
DA:355,0
DA:356,0
DA:357,0
DA:358,0
DA:359,0
DA:361,0
DA:362,0
DA:363,0
DA:364,0
DA:365,0
DA:366,0
DA:367,0
DA:368,0
DA:369,0
DA:370,0
DA:372,0
DA:375,0
DA:376,0
DA:377,0
DA:380,0
DA:381,0
DA:382,0
DA:383,0
DA:384,0
DA:385,0
DA:386,0
DA:387,0
DA:388,0
DA:389,0
DA:392,0
DA:393,0
DA:394,0
DA:396,0
DA:397,0
DA:398,0
DA:399,0
DA:400,0
DA:401,0
DA:402,0
DA:403,0
DA:404,0
DA:405,0
DA:406,0
DA:407,0
DA:409,0
DA:410,0
DA:411,0
DA:412,0
DA:413,0
DA:414,0
DA:415,0
DA:427,0
DA:428,0
DA:429,0
DA:430,0
DA:431,0
DA:432,0
DA:434,0
DA:435,0
DA:436,0
DA:437,0
DA:438,0
DA:440,0
DA:441,0
DA:442,0
DA:443,0
DA:444,0
DA:447,0
DA:448,0
DA:449,0
DA:450,0
DA:451,0
DA:452,0
DA:453,0
DA:454,0
DA:455,0
DA:456,0
DA:457,0
DA:458,0
DA:460,0
DA:461,0
DA:463,0
DA:464,0
DA:465,0
DA:466,0
DA:467,0
DA:469,0
DA:470,0
DA:472,0
DA:473,0
DA:474,0
DA:475,0
DA:476,0
DA:478,0
DA:479,0
DA:481,0
DA:482,0
DA:483,0
DA:484,0
DA:485,0
DA:486,0
DA:489,0
DA:490,0
DA:493,0
DA:494,0
DA:495,0
DA:496,0
DA:497,0
DA:498,0
DA:499,0
DA:500,0
DA:501,0
DA:502,0
DA:503,0
DA:504,0
DA:505,0
DA:506,0
DA:507,0
DA:508,0
DA:509,0
DA:510,0
DA:511,0
DA:512,0
DA:513,0
DA:514,0
DA:515,0
DA:516,0
DA:517,0
DA:520,0
DA:521,0
DA:525,0
DA:526,0
DA:527,0
DA:528,0
DA:539,0
DA:540,0
DA:541,0
DA:542,0
DA:543,0
DA:544,0
DA:545,0
DA:547,0
DA:548,0
DA:549,0
DA:550,0
DA:551,0
DA:552,0
DA:553,0
DA:554,0
DA:556,0
DA:557,0
DA:558,0
DA:563,0
DA:564,0
DA:565,0
DA:566,0
DA:567,0
DA:568,0
DA:569,0
DA:570,0
DA:572,0
DA:574,0
DA:575,0
DA:576,0
DA:577,0
DA:580,0
DA:585,0
DA:586,0
DA:587,0
DA:588,0
DA:589,0
DA:590,0
DA:591,0
DA:592,0
DA:596,0
DA:597,0
DA:599,0
DA:600,0
DA:601,0
DA:602,0
DA:603,0
DA:604,0
DA:605,0
DA:606,0
DA:607,0
DA:608,0
DA:609,0
DA:610,0
DA:611,0
DA:612,0
DA:613,0
DA:614,0
DA:615,0
DA:616,0
DA:617,0
DA:618,0
DA:620,0
DA:621,0
DA:622,0
DA:623,0
DA:624,0
DA:625,0
DA:634,17
DA:635,17
DA:636,17
DA:639,0
DA:640,0
DA:641,0
DA:642,0
DA:643,0
DA:644,0
DA:645,0
DA:646,0
DA:647,0
DA:648,0
DA:649,0
DA:650,0
DA:651,0
DA:652,0
DA:653,0
DA:654,0
DA:655,0
DA:656,0
DA:657,0
DA:658,0
DA:659,0
DA:660,0
DA:661,0
DA:662,0
DA:665,0
DA:666,0
DA:667,0
DA:668,0
DA:669,0
DA:671,0
DA:672,0
DA:674,0
DA:675,0
DA:676,0
DA:677,0
DA:678,0
DA:680,0
DA:681,0
DA:682,0
DA:683,0
DA:684,0
DA:685,0
DA:686,0
DA:687,0
DA:690,0
DA:691,0
DA:692,0
DA:693,0
DA:694,0
DA:695,0
DA:696,0
DA:697,0
DA:700,0
DA:701,0
DA:702,0
DA:703,0
DA:706,0
DA:707,0
DA:708,0
DA:709,0
DA:710,0
DA:711,0
DA:712,0
DA:713,0
DA:716,1
DA:717,1
DA:718,1
DA:719,1
DA:720,1
DA:721,1
DA:723,2
DA:724,1
DA:725,1
DA:726,1
DA:728,1
DA:729,1
DA:730,1
DA:733,0
DA:739,0
DA:740,0
DA:741,0
DA:742,0
DA:743,0
DA:744,0
DA:745,0
DA:748,0
DA:749,0
DA:750,0
DA:751,0
DA:752,0
DA:753,0
DA:754,0
DA:755,0
DA:756,0
DA:757,0
DA:759,0
DA:760,0
DA:761,0
DA:762,0
DA:763,0
DA:764,0
DA:767,0
DA:768,0
DA:769,0
DA:770,0
DA:771,0
DA:774,3
DA:775,3
DA:776,3
DA:777,3
DA:778,3
DA:781,6
DA:782,6
DA:783,6
DA:784,6
DA:785,6
DA:788,1
DA:789,1
DA:790,1
DA:791,1
DA:792,1
DA:793,1
DA:794,1
DA:795,1
DA:796,1
DA:797,1
DA:798,1
DA:799,1
DA:800,1
DA:801,1
DA:804,1
DA:805,1
DA:806,1
DA:807,1
DA:808,1
DA:809,1
DA:810,1
DA:811,1
DA:812,1
DA:815,3
DA:816,3
DA:817,3
DA:818,3
DA:819,3
DA:820,3
DA:823,3
DA:824,3
DA:825,3
DA:826,3
DA:827,3
DA:828,3
DA:829,3
DA:830,3
DA:832,2
DA:833,0
DA:834,2
DA:835,2
DA:836,2
DA:837,2
DA:838,2
DA:840,0
DA:844,1
DA:846,3
DA:849,0
DA:850,0
DA:851,0
DA:852,0
DA:853,0
DA:854,0
DA:855,0
DA:856,0
DA:858,0
DA:859,0
DA:860,0
DA:861,0
DA:862,0
DA:863,0
DA:864,0
DA:865,0
DA:867,0
DA:868,0
DA:870,0
DA:871,0
DA:872,0
DA:873,0
DA:874,0
DA:875,0
DA:878,2
DA:879,2
DA:880,2
DA:881,2
DA:885,2
DA:886,0
DA:887,2
DA:888,2
DA:889,2
DA:890,2
DA:893,2
DA:894,2
DA:895,2
DA:897,2
DA:898,2
DA:899,0
DA:900,0
DA:901,0
DA:902,0
DA:905,0
DA:908,0
DA:909,0
DA:910,0
DA:911,0
DA:912,0
DA:913,0
DA:917,0
DA:919,0
DA:920,0
DA:921,2
DA:924,2
DA:925,2
DA:926,2
DA:927,2
DA:928,2
DA:929,2
DA:930,2
DA:931,2
DA:932,2
DA:933,2
DA:934,2
DA:935,2
DA:936,2
DA:937,2
DA:938,2
DA:939,2
DA:940,2
DA:941,2
DA:943,2
DA:944,2
DA:946,2
DA:947,2
DA:948,2
DA:949,2
DA:950,2
DA:951,2
DA:954,11
DA:955,11
DA:956,11
DA:957,11
DA:958,11
DA:959,11
DA:960,11
DA:961,11
DA:964,1
DA:965,3
DA:966,1
DA:969,1
DA:970,1
DA:971,0
DA:972,0
DA:973,1
DA:974,1
DA:975,1
DA:976,1
DA:977,1
DA:980,0
DA:983,0
DA:984,0
DA:985,0
DA:986,0
DA:987,0
DA:988,0
DA:989,0
DA:990,0
DA:991,0
DA:992,0
DA:993,0
DA:994,0
DA:995,0
DA:996,0
DA:997,0
DA:998,0
DA:999,0
DA:1000,0
DA:1001,0
DA:1002,0
DA:1005,2
DA:1008,2
DA:1009,0
DA:1010,2
DA:1011,2
DA:1012,2
DA:1013,2
DA:1014,2
DA:1015,2
DA:1016,4
DA:1017,2
DA:1018,2
DA:1021,2
DA:1022,4
DA:1023,2
DA:1024,2
DA:1025,1
DA:1026,1
DA:1027,1
DA:1030,2
DA:1031,2
DA:1032,2
DA:1033,2
DA:1034,2
DA:1035,2
DA:1038,1
DA:1042,1
DA:1043,0
DA:1044,1
DA:1045,1
DA:1046,1
DA:1047,1
DA:1050,1
DA:1051,0
DA:1052,0
DA:1053,0
DA:1054,0
DA:1056,1
DA:1057,1
DA:1058,5
DA:1059,1
DA:1063,4
DA:1064,4
DA:1065,0
DA:1066,4
DA:1068,4
DA:1069,4
DA:1070,0
DA:1071,4
DA:1072,4
DA:1073,4
DA:1074,4
DA:1075,4
DA:1076,4
DA:1077,0
DA:1082,1
DA:1083,1
DA:1084,1
DA:1085,1
DA:1086,1
DA:1087,5
DA:1088,5
DA:1089,1
DA:1091,4
DA:1093,5
DA:1094,1
DA:1095,1
DA:1096,1
DA:1097,1
DA:1098,1
DA:1099,1
DA:1100,1
DA:1101,1
DA:1102,1
DA:1105,1
DA:1110,1
DA:1111,0
DA:1112,1
DA:1113,1
DA:1114,1
DA:1115,1
DA:1116,1
DA:1117,1
DA:1118,1
DA:1119,1
DA:1120,10
DA:1121,1
DA:1122,1
DA:1123,1
DA:1124,1
DA:1125,1
DA:1126,1
DA:1127,1
DA:1128,1
DA:1129,2
DA:1130,11
DA:1133,9
DA:1134,9
DA:1135,0
DA:1136,9
DA:1140,9
DA:1142,9
DA:1143,9
DA:1144,0
DA:1145,9
DA:1146,9
DA:1147,9
DA:1148,9
DA:1149,9
DA:1150,9
DA:1151,9
DA:1152,9
DA:1153,0
DA:1156,2
DA:1157,1
DA:1158,1
DA:1159,1
DA:1160,1
DA:1161,1
DA:1162,1
DA:1163,1
DA:1164,1
DA:1165,10
DA:1166,10
DA:1167,1
DA:1169,9
DA:1171,10
DA:1172,1
DA:1173,1
DA:1174,1
DA:1175,1
DA:1176,1
DA:1177,1
DA:1178,1
DA:1179,1
DA:1180,1
DA:1183,13
DA:1184,13
DA:1185,13
DA:1186,13
DA:1187,13
DA:1188,13
DA:1189,0
DA:1191,13
DA:1193,13
DA:1203,0
DA:1204,0
DA:1205,0
DA:1206,0
DA:1207,0
DA:1208,0
DA:1211,0
DA:1212,0
DA:1213,0
DA:1214,0
DA:1215,0
DA:1216,0
DA:1217,0
DA:1218,0
DA:1219,0
DA:1220,0
DA:1221,0
DA:1222,0
DA:1223,0
DA:1225,0
DA:1226,0
DA:1227,0
DA:1228,0
DA:1229,0
DA:1230,0
DA:1232,0
DA:1233,0
DA:1234,0
DA:1235,0
DA:1236,0
DA:1237,0
DA:1238,0
DA:1239,0
DA:1240,0
DA:1243,0
DA:1244,0
DA:1245,0
DA:1246,0
DA:1247,0
DA:1248,0
DA:1249,0
DA:1250,0
DA:1251,0
DA:1252,0
DA:1253,0
DA:1254,0
DA:1255,0
DA:1258,0
DA:1259,0
DA:1262,0
DA:1263,0
DA:1264,0
DA:1265,0
DA:1266,0
DA:1268,0
DA:1270,0
DA:1272,0
DA:1273,0
DA:1274,0
DA:1275,0
DA:1276,0
DA:1277,0
DA:1278,0
DA:1279,0
DA:1280,0
DA:1283,0
DA:1284,0
DA:1285,0
DA:1286,0
DA:1288,0
DA:1293,0
DA:1294,0
DA:1295,0
DA:1297,0
DA:1298,0
DA:1300,0
DA:1304,0
DA:1305,0
DA:1307,0
DA:1310,0
DA:1311,0
DA:1314,0
DA:1317,0
DA:1318,0
DA:1319,0
DA:1320,0
DA:1321,0
DA:1322,0
DA:1323,0
DA:1325,0
DA:1326,0
DA:1329,0
DA:1330,0
DA:1331,0
DA:1332,0
DA:1333,0
DA:1334,0
DA:1335,0
DA:1336,0
DA:1337,0
DA:1338,0
DA:1339,0
DA:1340,0
DA:1341,0
DA:1343,0
DA:1346,0
DA:1348,0
DA:1351,0
DA:1352,0
DA:1353,0
DA:1354,0
DA:1355,0
DA:1356,0
DA:1357,0
DA:1358,0
DA:1359,0
DA:1360,0
DA:1361,0
DA:1363,0
DA:1364,0
DA:1365,0
DA:1366,0
DA:1367,0
DA:1368,0
DA:1371,0
DA:1372,0
DA:1373,0
DA:1376,0
DA:1377,0
DA:1379,0
DA:1380,0
DA:1381,0
DA:1382,0
DA:1383,0
DA:1387,0
DA:1388,0
DA:1391,0
DA:1392,0
DA:1393,0
DA:1394,0
DA:1395,0
DA:1396,0
DA:1397,0
DA:1398,0
DA:1399,0
DA:1400,0
DA:1401,0
DA:1402,0
DA:1403,0
DA:1404,0
DA:1405,0
DA:1406,0
DA:1407,0
DA:1408,0
DA:1409,0
DA:1410,0
DA:1411,0
DA:1412,0
DA:1414,0
DA:1415,0
DA:1416,0
DA:1417,0
DA:1418,0
DA:1419,0
DA:1421,0
DA:1424,0
DA:1425,0
DA:1427,0
DA:1429,0
DA:1439,1
DA:1440,1
DA:1441,1
DA:1444,1
DA:1445,1
DA:1446,1
DA:1447,1
DA:1448,1
DA:1449,1
DA:1450,1
DA:1451,1
DA:1452,1
DA:1453,1
DA:1454,1
DA:1455,1
DA:1456,1
DA:1458,2
DA:1459,1
DA:1460,1
DA:1461,1
DA:1462,1
DA:1463,1
DA:1464,1
DA:1467,1
DA:1468,1
DA:1469,1
DA:1470,1
DA:1471,1
DA:1472,1
DA:1473,1
DA:1475,0
DA:1477,1
DA:1482,8
DA:1483,8
DA:1484,8
DA:1485,8
DA:1487,8
DA:1488,8
DA:1489,8
DA:1490,8
DA:1491,8
DA:1492,8
DA:1493,8
DA:1497,10
DA:1498,10
DA:1499,10
DA:1500,10
DA:1509,0
DA:1510,0
DA:1511,0
DA:1513,10
DA:1514,10
DA:1515,10
DA:1516,10
DA:1517,10
DA:1518,10
DA:1519,10
DA:1520,10
DA:1522,50
DA:1523,40
DA:1524,40
DA:1525,10
DA:1526,0
DA:1527,10
DA:1528,10
DA:1530,30
DA:1531,10
DA:1532,0
DA:1533,10
DA:1534,10
DA:1536,20
DA:1537,10
DA:1538,0
DA:1539,10
DA:1540,10
DA:1542,10
DA:1543,10
DA:1544,0
DA:1545,10
DA:1546,10
DA:1549,0
DA:1554,10
DA:1555,10
DA:1556,10
DA:1557,10
DA:1558,10
DA:1560,10
DA:1561,10
DA:1563,10
DA:1564,10
DA:1565,10
DA:1566,10
DA:1567,10
DA:1568,10
DA:1569,10
DA:1573,10
DA:1574,10
DA:1582,0
DA:1583,0
DA:1584,0
DA:1585,0
DA:1586,0
DA:1587,0
DA:1588,0
DA:1589,0
DA:1590,0
DA:1591,0
DA:1592,0
DA:1593,0
DA:1595,0
DA:1597,0
DA:1600,0
DA:1601,0
DA:1602,0
DA:1603,0
DA:1604,0
DA:1605,0
DA:1606,0
DA:1607,0
DA:1608,0
DA:1609,0
DA:1610,0
DA:1611,0
DA:1612,0
DA:1613,0
DA:1614,0
DA:1615,0
DA:1616,0
DA:1617,0
DA:1618,0
DA:1619,0
DA:1620,0
DA:1621,0
DA:1622,0
DA:1623,0
DA:1624,0
DA:1625,0
DA:1627,0
DA:1628,0
DA:1629,0
DA:1630,0
DA:1631,0
DA:1632,0
DA:1633,0
DA:1637,0
DA:1638,0
DA:1639,0
DA:1641,0
DA:1642,0
DA:1644,0
DA:1645,0
DA:1646,0
DA:1647,0
DA:1648,0
DA:1649,0
DA:1650,0
DA:1651,0
DA:1652,0
DA:1653,0
DA:1654,0
DA:1656,0
DA:1657,0
DA:1658,0
DA:1659,0
DA:1662,0
DA:1663,0
DA:1664,0
DA:1665,0
DA:1666,0
DA:1667,0
DA:1668,0
DA:1671,0
DA:1672,0
DA:1673,0
DA:1674,0
DA:1675,0
DA:1676,0
DA:1679,0
DA:1682,0
DA:1683,0
DA:1686,0
DA:1687,0
DA:1688,0
DA:1689,0
DA:1690,0
DA:1691,0
DA:1692,0
DA:1693,0
DA:1694,0
DA:1695,0
DA:1696,0
DA:1697,0
DA:1698,0
DA:1699,0
DA:1700,0
DA:1701,0
DA:1702,0
DA:1703,0
DA:1706,0
DA:1707,0
DA:1709,0
DA:1711,0
DA:1712,0
DA:1713,0
DA:1714,0
DA:1715,0
DA:1716,0
DA:1717,0
DA:1718,0
DA:1719,0
DA:1720,0
DA:1723,0
DA:1724,0
DA:1725,0
DA:1726,0
DA:1727,0
DA:1728,0
DA:1729,0
DA:1730,0
DA:1731,0
DA:1733,0
DA:1734,0
DA:1735,0
DA:1736,0
DA:1739,0
DA:1740,0
DA:1741,0
DA:1742,0
DA:1743,0
DA:1744,0
DA:1745,0
DA:1746,0
DA:1747,0
DA:1748,0
DA:1751,0
DA:1752,0
DA:1753,0
DA:1754,0
DA:1755,0
DA:1756,0
DA:1757,0
DA:1758,0
DA:1759,0
DA:1760,0
DA:1762,0
DA:1764,0
DA:1765,0
DA:1767,0
DA:1770,0
DA:1773,0
DA:1774,0
DA:1775,0
DA:1776,0
DA:1777,0
DA:1778,0
DA:1779,0
DA:1780,0
DA:1782,0
DA:1783,0
DA:1784,0
DA:1785,0
DA:1788,0
DA:1789,0
DA:1790,0
DA:1791,0
DA:1792,0
DA:1793,0
DA:1794,0
DA:1795,0
DA:1796,0
DA:1797,0
DA:1800,0
DA:1801,0
DA:1802,0
DA:1803,0
DA:1804,0
DA:1805,0
DA:1806,0
DA:1807,0
DA:1808,0
DA:1809,0
DA:1811,0
DA:1813,0
DA:1814,0
DA:1816,0
DA:1819,0
DA:1822,2
DA:1824,2
DA:1825,1
DA:1826,1
DA:1830,1
DA:1831,1
DA:1832,0
DA:1833,1
DA:1836,1
DA:1837,0
DA:1840,1
DA:1841,1
DA:1842,0
DA:1848,1
DA:1849,1
DA:1850,0
DA:1851,1
DA:1852,1
DA:1853,1
DA:1854,1
DA:1855,1
DA:1856,1
DA:1857,1
DA:1858,1
DA:1859,1
DA:1860,1
DA:1861,1
DA:1862,1
DA:1863,1
DA:1864,1
DA:1865,1
DA:1866,1
DA:1867,1
DA:1868,1
DA:1869,2
DA:1872,1
DA:1873,1
DA:1874,1
DA:1875,1
DA:1876,1
DA:1877,1
DA:1878,1
DA:1879,1
DA:1880,1
DA:1882,2
DA:1883,1
DA:1884,1
DA:1885,1
DA:1886,1
DA:1887,1
DA:1888,1
DA:1889,1
DA:1890,1
DA:1891,1
DA:1893,1
DA:1894,1
DA:1897,1
DA:1898,1
DA:1899,1
DA:1900,1
DA:1901,1
DA:1902,1
DA:1903,1
DA:1904,1
DA:1905,1
DA:1906,0
DA:1907,0
DA:1908,0
DA:1909,0
DA:1910,0
DA:1911,0
DA:1912,1
DA:1913,1
DA:1914,1
DA:1915,1
DA:1916,1
DA:1917,1
DA:1918,1
DA:1919,1
DA:1920,1
DA:1923,1
DA:1924,1
DA:1925,1
DA:1926,1
DA:1927,1
DA:1928,1
DA:1929,1
DA:1930,1
DA:1931,1
DA:1932,1
DA:1933,1
DA:1934,1
DA:1935,1
DA:1936,1
DA:1938,3
DA:1940,2
DA:1941,1
DA:1942,1
DA:1943,1
DA:1944,1
DA:1945,1
DA:1946,1
DA:1947,1
DA:1948,1
DA:1949,1
DA:1950,1
DA:1951,2
DA:1954,1
DA:1955,1
DA:1956,1
DA:1957,1
DA:1958,1
DA:1959,1
DA:1960,1
DA:1961,1
DA:1962,1
DA:1963,1
DA:1964,1
DA:1965,1
DA:1966,1
DA:1967,1
DA:1968,1
DA:1969,1
DA:1970,1
DA:1971,1
DA:1972,1
DA:1973,1
DA:1974,1
DA:1977,0
DA:1978,0
DA:1979,0
DA:1980,0
DA:1981,0
DA:1982,0
DA:1983,0
DA:1984,0
DA:1985,0
DA:1986,0
DA:1987,0
DA:1988,0
DA:1989,0
DA:1990,0
DA:1991,0
DA:1992,0
DA:1993,0
DA:1994,0
DA:1995,0
DA:1996,0
DA:1997,0
DA:1998,0
DA:1999,0
DA:2000,0
DA:2001,0
DA:2002,0
DA:2003,0
DA:2007,0
DA:2008,0
DA:2010,0
DA:2012,0
DA:2013,0
DA:2014,0
DA:2015,0
DA:2016,0
DA:2017,0
DA:2018,0
DA:2019,0
DA:2020,0
DA:2021,0
DA:2025,0
DA:2028,0
DA:2029,0
DA:2030,0
DA:2031,0
DA:2032,0
DA:2033,0
DA:2034,0
DA:2035,0
DA:2036,0
DA:2037,0
DA:2038,0
DA:2039,0
DA:2040,0
DA:2041,0
DA:2042,0
DA:2043,0
DA:2044,0
DA:2045,0
DA:2046,0
DA:2047,0
DA:2048,0
DA:2049,0
DA:2050,0
DA:2051,0
DA:2052,0
DA:2053,0
DA:2054,0
DA:2055,0
DA:2058,3
DA:2059,3
DA:2060,3
DA:2061,3
DA:2062,3
DA:2063,3
DA:2064,3
DA:2065,3
DA:2066,3
DA:2069,5
DA:2070,5
DA:2071,5
DA:2072,5
DA:2073,5
DA:2074,5
DA:2075,5
DA:2076,5
DA:2079,2
DA:2080,2
DA:2081,2
DA:2082,2
DA:2083,2
DA:2084,2
DA:2085,2
DA:2087,2
DA:2088,2
DA:2091,4
DA:2093,2
DA:2094,2
DA:2095,1
DA:2096,2
DA:2097,2
DA:2098,2
DA:2099,1
DA:2100,1
DA:2104,2
DA:2105,2
DA:2107,2
DA:2108,2
DA:2109,2
DA:2110,2
DA:2111,2
DA:2114,0
DA:2116,2
DA:2117,2
DA:2120,0
DA:2121,0
DA:2122,0
DA:2123,0
DA:2124,0
DA:2125,0
DA:2126,0
DA:2127,0
DA:2130,0
DA:2133,0
DA:2134,0
DA:2135,0
DA:2136,0
DA:2146,1
DA:2147,1
DA:2148,1
DA:2149,1
DA:2152,1
DA:2153,1
DA:2154,1
DA:2155,1
DA:2156,1
DA:2157,1
DA:2158,1
DA:2159,1
DA:2160,1
DA:2161,1
DA:2162,1
DA:2163,1
DA:2164,1
DA:2165,1
DA:2166,1
DA:2169,1
DA:2170,1
DA:2171,1
DA:2172,1
DA:2173,1
DA:2174,1
DA:2175,1
DA:2176,1
DA:2177,1
DA:2178,1
DA:2179,1
DA:2180,1
DA:2181,1
DA:2182,1
DA:2183,1
DA:2184,1
DA:2185,1
DA:2187,1
DA:2188,1
DA:2189,1
DA:2190,1
DA:2193,1
DA:2194,1
DA:2195,1
DA:2198,6
DA:2199,5
DA:2200,5
DA:2201,5
DA:2202,5
DA:2203,5
DA:2204,5
DA:2205,5
DA:2206,5
DA:2208,1
DA:2211,1
DA:2212,1
DA:2213,1
DA:2216,1
DA:2217,1
DA:2218,1
DA:2219,1
DA:2220,1
DA:2221,1
DA:2222,1
DA:2223,1
DA:2224,1
DA:2225,1
DA:2226,1
DA:2227,1
DA:2228,1
DA:2229,1
DA:2230,1
DA:2231,1
DA:2232,1
DA:2233,1
DA:2234,1
DA:2235,1
DA:2236,1
DA:2237,1
DA:2238,1
DA:2239,1
DA:2242,1
DA:2243,1
DA:2244,1
DA:2245,1
DA:2246,1
DA:2247,1
DA:2248,1
DA:2249,1
DA:2250,1
DA:2251,1
DA:2252,1
DA:2253,1
DA:2254,1
DA:2255,1
DA:2256,1
DA:2257,1
DA:2259,1
DA:2260,1
DA:2261,1
DA:2262,1
DA:2263,1
DA:2266,1
DA:2267,1
DA:2268,1
DA:2269,1
DA:2270,1
DA:2271,1
DA:2272,1
DA:2273,1
DA:2274,1
DA:2275,1
DA:2276,1
DA:2277,1
DA:2278,1
DA:2279,1
DA:2280,1
DA:2281,1
DA:2282,1
DA:2285,1
DA:2286,1
DA:2287,1
DA:2288,1
DA:2289,1
DA:2290,1
DA:2291,1
DA:2292,1
DA:2293,1
DA:2294,1
DA:2295,1
DA:2296,1
DA:2297,1
DA:2298,1
DA:2299,1
DA:2300,1
DA:2301,1
DA:2302,1
DA:2303,1
DA:2304,1
DA:2305,1
DA:2306,1
DA:2307,1
DA:2308,1
DA:2309,1
DA:2312,1
DA:2313,1
DA:2314,1
DA:2315,1
DA:2316,1
DA:2317,1
DA:2318,1
DA:2319,1
DA:2320,1
DA:2321,1
DA:2322,1
DA:2323,1
DA:2324,1
DA:2325,1
DA:2328,1
DA:2329,1
DA:2330,1
DA:2333,1
DA:2334,1
DA:2335,1
DA:2338,11
DA:2339,10
DA:2340,10
DA:2341,10
DA:2342,10
DA:2343,10
DA:2344,10
DA:2345,10
DA:2346,10
DA:2349,1
DA:2350,1
DA:2351,1
DA:2354,1
DA:2355,1
DA:2356,1
DA:2357,1
DA:2358,1
DA:2359,1
DA:2360,1
DA:2361,1
DA:2362,1
DA:2363,1
DA:2366,1
DA:2367,1
DA:2368,1
DA:2369,1
DA:2370,1
DA:2371,1
DA:2372,1
DA:2373,1
DA:2374,1
DA:2375,1
DA:2376,1
DA:2377,1
DA:2380,1
DA:2381,1
DA:2382,1
DA:2385,1
DA:2388,1
DA:2389,1
DA:2390,1
DA:2391,1
DA:2392,1
DA:2393,1
DA:2394,1
DA:2395,1
DA:2396,1
DA:2397,1
DA:2398,1
DA:2399,1
DA:2400,1
DA:2401,1
DA:2402,1
DA:2403,1
DA:2404,1
DA:2405,1
DA:2406,1
DA:2407,1
DA:2408,1
DA:2411,1
DA:2412,1
DA:2413,1
DA:2414,1
DA:2415,1
DA:2416,1
DA:2417,1
DA:2418,1
DA:2419,1
DA:2420,1
DA:2421,1
DA:2424,1
DA:2425,1
DA:2426,1
DA:2427,1
DA:2428,1
DA:2429,1
DA:2430,1
DA:2431,1
DA:2432,1
DA:2433,1
DA:2434,1
DA:2437,1
DA:2440,1
DA:2441,1
DA:2442,1
DA:2443,1
DA:2444,1
DA:2445,1
DA:2446,1
DA:2447,1
DA:2448,1
DA:2449,1
DA:2450,1
DA:2451,1
DA:2452,1
DA:2453,1
DA:2454,1
DA:2455,1
DA:2456,1
DA:2459,1
DA:2460,1
DA:2461,1
DA:2462,1
DA:2463,1
DA:2464,1
DA:2465,1
DA:2466,1
DA:2467,1
DA:2468,1
DA:2469,1
DA:2470,1
DA:2471,1
DA:2472,1
DA:2473,1
DA:2474,1
DA:2475,1
DA:2476,1
DA:2477,1
DA:2478,1
DA:2479,1
DA:2480,1
DA:2481,1
DA:2482,1
DA:2483,1
DA:2484,1
DA:2487,1
DA:2488,1
DA:2489,1
DA:2490,1
DA:2493,1
DA:2494,1
DA:2495,1
DA:2498,1
DA:2501,1
DA:2502,1
DA:2503,1
DA:2504,1
DA:2505,1
DA:2506,1
DA:2507,1
DA:2508,1
DA:2509,1
DA:2510,1
DA:2511,1
DA:2512,1
DA:2513,1
DA:2514,1
DA:2515,1
DA:2516,1
DA:2517,1
DA:2518,1
DA:2519,1
DA:2520,1
DA:2521,1
DA:2524,1
DA:2527,1
DA:2528,1
DA:2529,1
DA:2530,1
DA:2531,1
DA:2532,1
DA:2533,1
DA:2534,1
DA:2535,1
DA:2536,1
DA:2537,1
DA:2538,1
DA:2539,1
DA:2540,1
DA:2541,1
DA:2542,1
DA:2543,1
DA:2544,1
DA:2545,1
DA:2546,1
DA:2547,1
DA:2548,1
DA:2549,1
DA:2550,1
DA:2551,1
DA:2552,1
DA:2553,1
DA:2554,1
DA:2557,1
DA:2560,1
DA:2561,1
DA:2562,1
DA:2563,1
DA:2564,1
DA:2565,1
DA:2566,1
DA:2567,1
DA:2568,1
DA:2569,1
DA:2570,1
DA:2571,1
DA:2572,1
DA:2573,1
DA:2574,1
DA:2575,1
DA:2576,1
DA:2577,1
DA:2578,1
DA:2579,1
DA:2580,1
DA:2581,1
BRF:0
BRH:0
LF:1935
LH:961
end_of_record
SF:/home/justin/Projects/chess-vector-engine/src/uci.rs
FN:183,_RNvMNtCsh06HHTBymxI_19chess_vector_engine3uciNtB2_9UCIEngine3run
FN:827,_RNvNtCsh06HHTBymxI_19chess_vector_engine3uci14run_uci_engine
FN:833,_RNvNtCsh06HHTBymxI_19chess_vector_engine3uci26run_uci_engine_with_config
FN:815,_RNvXs0_NtCsh06HHTBymxI_19chess_vector_engine3uciNtB5_9UCIConfigNtNtCs9sjCchOt1K7_4core7default7Default7default
FN:799,_RNvXs_NtCsh06HHTBymxI_19chess_vector_engine3uciNtB4_9UCIEngineNtNtCs9sjCchOt1K7_4core7default7Default7default
FN:864,_RNvNtNtCsh06HHTBymxI_19chess_vector_engine3uci5testss_16test_uci_command
FN:913,_RNvNtNtCsh06HHTBymxI_19chess_vector_engine3uci5testss_17test_debug_toggle
FN:901,_RNvNtNtCsh06HHTBymxI_19chess_vector_engine3uci5testss_19test_option_setting
FN:873,_RNvNtNtCsh06HHTBymxI_19chess_vector_engine3uci5testss_20test_isready_command
FN:998,_RNvNtNtCsh06HHTBymxI_19chess_vector_engine3uci5testss_20test_multi_pv_option
FN:1019,_RNvNtNtCsh06HHTBymxI_19chess_vector_engine3uci5testss_21test_multi_pv_setting
FN:924,_RNvNtNtCsh06HHTBymxI_19chess_vector_engine3uci5testss_21test_pondering_option
FN:948,_RNvNtNtCsh06HHTBymxI_19chess_vector_engine3uci5testss_22test_ponderhit_command
FN:880,_RNvNtNtCsh06HHTBymxI_19chess_vector_engine3uci5testss_22test_position_startpos
FN:856,_RNvNtNtCsh06HHTBymxI_19chess_vector_engine3uci5testss_23test_uci_initialization
FN:888,_RNvNtNtCsh06HHTBymxI_19chess_vector_engine3uci5testss_24test_position_with_moves
FN:1035,_RNvNtNtCsh06HHTBymxI_19chess_vector_engine3uci5testss_26test_single_pv_vs_multi_pv
FN:965,_RNvNtNtCsh06HHTBymxI_19chess_vector_engine3uci5testss_26test_stop_during_pondering
FN:983,_RNvNtNtCsh06HHTBymxI_19chess_vector_engine3uci5testss_27test_expected_opponent_move
FN:936,_RNvNtNtCsh06HHTBymxI_19chess_vector_engine3uci5testss_27test_ponder_command_parsing
FN:239,_RNvMNtCsh06HHTBymxI_19chess_vector_engine3uciNtB2_9UCIEngine10handle_uci
FN:327,_RNvMNtCsh06HHTBymxI_19chess_vector_engine3uciNtB2_9UCIEngine10set_option
FN:779,_RNvMNtCsh06HHTBymxI_19chess_vector_engine3uciNtB2_9UCIEngine11handle_stop
FN:286,_RNvMNtCsh06HHTBymxI_19chess_vector_engine3uciNtB2_9UCIEngine12handle_debug
FN:547,_RNvMNtCsh06HHTBymxI_19chess_vector_engine3uciNtB2_9UCIEngine12start_search
FN:371,_RNvMNtCsh06HHTBymxI_19chess_vector_engine3uciNtB2_9UCIEngine13apply_options
FN:297,_RNvMNtCsh06HHTBymxI_19chess_vector_engine3uciNtB2_9UCIEngine14handle_isready
FN:416,_RNvMNtCsh06HHTBymxI_19chess_vector_engine3uciNtB2_9UCIEngine15handle_position
FN:211,_RNvMNtCsh06HHTBymxI_19chess_vector_engine3uciNtB2_9UCIEngine15process_command
FN:746,_RNvMNtCsh06HHTBymxI_19chess_vector_engine3uciNtB2_9UCIEngine16handle_ponderhit
FN:301,_RNvMNtCsh06HHTBymxI_19chess_vector_engine3uciNtB2_9UCIEngine16handle_setoption
FN:410,_RNvMNtCsh06HHTBymxI_19chess_vector_engine3uciNtB2_9UCIEngine17handle_ucinewgame
FN:665,_RNvMNtCsh06HHTBymxI_19chess_vector_engine3uciNtB2_9UCIEngine19start_ponder_search
FN:711,_RNvMNtCsh06HHTBymxI_19chess_vector_engine3uciNtB2_9UCIEngine26get_expected_opponent_move
FN:71,_RNvMNtCsh06HHTBymxI_19chess_vector_engine3uciNtB2_9UCIEngine3new
FN:455,_RNvMNtCsh06HHTBymxI_19chess_vector_engine3uciNtB2_9UCIEngine9handle_go
FN:607,_RNCNCNvMNtCsh06HHTBymxI_19chess_vector_engine3uciNtB6_9UCIEngine12start_search00B8_
FN:563,_RNCNvMNtCsh06HHTBymxI_19chess_vector_engine3uciNtB4_9UCIEngine12start_search0B6_
FN:439,_RNCNvMNtCsh06HHTBymxI_19chess_vector_engine3uciNtB4_9UCIEngine15handle_position0B6_
FN:766,_RNCNvMNtCsh06HHTBymxI_19chess_vector_engine3uciNtB4_9UCIEngine16handle_ponderhit0B6_
FN:693,_RNCNvMNtCsh06HHTBymxI_19chess_vector_engine3uciNtB4_9UCIEngine19start_ponder_search0B6_
FNDA:0,_RNvMNtCsh06HHTBymxI_19chess_vector_engine3uciNtB2_9UCIEngine3run
FNDA:0,_RNvNtCsh06HHTBymxI_19chess_vector_engine3uci14run_uci_engine
FNDA:0,_RNvNtCsh06HHTBymxI_19chess_vector_engine3uci26run_uci_engine_with_config
FNDA:0,_RNvXs0_NtCsh06HHTBymxI_19chess_vector_engine3uciNtB5_9UCIConfigNtNtCs9sjCchOt1K7_4core7default7Default7default
FNDA:0,_RNvXs_NtCsh06HHTBymxI_19chess_vector_engine3uciNtB4_9UCIEngineNtNtCs9sjCchOt1K7_4core7default7Default7default
FNDA:1,_RNvNtNtCsh06HHTBymxI_19chess_vector_engine3uci5testss_16test_uci_command
FNDA:1,_RNvNtNtCsh06HHTBymxI_19chess_vector_engine3uci5testss_17test_debug_toggle
FNDA:1,_RNvNtNtCsh06HHTBymxI_19chess_vector_engine3uci5testss_19test_option_setting
FNDA:1,_RNvNtNtCsh06HHTBymxI_19chess_vector_engine3uci5testss_20test_isready_command
FNDA:1,_RNvNtNtCsh06HHTBymxI_19chess_vector_engine3uci5testss_20test_multi_pv_option
FNDA:1,_RNvNtNtCsh06HHTBymxI_19chess_vector_engine3uci5testss_21test_multi_pv_setting
FNDA:1,_RNvNtNtCsh06HHTBymxI_19chess_vector_engine3uci5testss_21test_pondering_option
FNDA:1,_RNvNtNtCsh06HHTBymxI_19chess_vector_engine3uci5testss_22test_ponderhit_command
FNDA:1,_RNvNtNtCsh06HHTBymxI_19chess_vector_engine3uci5testss_22test_position_startpos
FNDA:1,_RNvNtNtCsh06HHTBymxI_19chess_vector_engine3uci5testss_23test_uci_initialization
FNDA:1,_RNvNtNtCsh06HHTBymxI_19chess_vector_engine3uci5testss_24test_position_with_moves
FNDA:1,_RNvNtNtCsh06HHTBymxI_19chess_vector_engine3uci5testss_26test_single_pv_vs_multi_pv
FNDA:1,_RNvNtNtCsh06HHTBymxI_19chess_vector_engine3uci5testss_26test_stop_during_pondering
FNDA:1,_RNvNtNtCsh06HHTBymxI_19chess_vector_engine3uci5testss_27test_expected_opponent_move
FNDA:1,_RNvNtNtCsh06HHTBymxI_19chess_vector_engine3uci5testss_27test_ponder_command_parsing
FNDA:1,_RNvMNtCsh06HHTBymxI_19chess_vector_engine3uciNtB2_9UCIEngine10handle_uci
FNDA:4,_RNvMNtCsh06HHTBymxI_19chess_vector_engine3uciNtB2_9UCIEngine10set_option
FNDA:1,_RNvMNtCsh06HHTBymxI_19chess_vector_engine3uciNtB2_9UCIEngine11handle_stop
FNDA:2,_RNvMNtCsh06HHTBymxI_19chess_vector_engine3uciNtB2_9UCIEngine12handle_debug
FNDA:0,_RNvMNtCsh06HHTBymxI_19chess_vector_engine3uciNtB2_9UCIEngine12start_search
FNDA:4,_RNvMNtCsh06HHTBymxI_19chess_vector_engine3uciNtB2_9UCIEngine13apply_options
FNDA:1,_RNvMNtCsh06HHTBymxI_19chess_vector_engine3uciNtB2_9UCIEngine14handle_isready
FNDA:2,_RNvMNtCsh06HHTBymxI_19chess_vector_engine3uciNtB2_9UCIEngine15handle_position
FNDA:4,_RNvMNtCsh06HHTBymxI_19chess_vector_engine3uciNtB2_9UCIEngine15process_command
FNDA:1,_RNvMNtCsh06HHTBymxI_19chess_vector_engine3uciNtB2_9UCIEngine16handle_ponderhit
FNDA:3,_RNvMNtCsh06HHTBymxI_19chess_vector_engine3uciNtB2_9UCIEngine16handle_setoption
FNDA:0,_RNvMNtCsh06HHTBymxI_19chess_vector_engine3uciNtB2_9UCIEngine17handle_ucinewgame
FNDA:1,_RNvMNtCsh06HHTBymxI_19chess_vector_engine3uciNtB2_9UCIEngine19start_ponder_search
FNDA:2,_RNvMNtCsh06HHTBymxI_19chess_vector_engine3uciNtB2_9UCIEngine26get_expected_opponent_move
FNDA:15,_RNvMNtCsh06HHTBymxI_19chess_vector_engine3uciNtB2_9UCIEngine3new
FNDA:1,_RNvMNtCsh06HHTBymxI_19chess_vector_engine3uciNtB2_9UCIEngine9handle_go
FNDA:0,_RNCNCNvMNtCsh06HHTBymxI_19chess_vector_engine3uciNtB6_9UCIEngine12start_search00B8_
FNDA:0,_RNCNvMNtCsh06HHTBymxI_19chess_vector_engine3uciNtB4_9UCIEngine12start_search0B6_
FNDA:5,_RNCNvMNtCsh06HHTBymxI_19chess_vector_engine3uciNtB4_9UCIEngine15handle_position0B6_
FNDA:0,_RNCNvMNtCsh06HHTBymxI_19chess_vector_engine3uciNtB4_9UCIEngine16handle_ponderhit0B6_
FNDA:1,_RNCNvMNtCsh06HHTBymxI_19chess_vector_engine3uciNtB4_9UCIEngine19start_ponder_search0B6_
FNF:41
FNH:31
DA:71,15
DA:72,15
DA:73,15
DA:74,15
DA:75,15
DA:76,15
DA:77,15
DA:78,15
DA:79,15
DA:80,15
DA:81,15
DA:82,15
DA:83,15
DA:84,15
DA:85,15
DA:86,15
DA:87,15
DA:88,15
DA:89,15
DA:90,15
DA:91,15
DA:92,15
DA:93,15
DA:94,15
DA:95,15
DA:96,15
DA:97,15
DA:98,15
DA:99,15
DA:100,15
DA:101,15
DA:102,15
DA:103,15
DA:104,15
DA:105,15
DA:106,15
DA:107,15
DA:108,15
DA:109,15
DA:110,15
DA:111,15
DA:112,15
DA:113,15
DA:114,15
DA:115,15
DA:116,15
DA:117,15
DA:118,15
DA:119,15
DA:120,15
DA:121,15
DA:122,15
DA:123,15
DA:124,15
DA:125,15
DA:126,15
DA:127,15
DA:128,15
DA:129,15
DA:130,15
DA:131,15
DA:132,15
DA:133,15
DA:134,15
DA:135,15
DA:136,15
DA:137,15
DA:138,15
DA:139,15
DA:140,15
DA:141,15
DA:142,15
DA:143,15
DA:144,15
DA:145,15
DA:146,15
DA:147,15
DA:148,15
DA:149,15
DA:150,15
DA:151,15
DA:152,15
DA:153,15
DA:154,15
DA:155,15
DA:156,15
DA:157,15
DA:158,15
DA:159,15
DA:160,15
DA:161,15
DA:162,15
DA:163,15
DA:164,15
DA:165,15
DA:166,15
DA:167,15
DA:168,15
DA:169,15
DA:170,15
DA:171,15
DA:172,15
DA:173,15
DA:174,15
DA:175,15
DA:176,15
DA:177,15
DA:178,15
DA:179,15
DA:180,15
DA:183,0
DA:184,0
DA:185,0
DA:187,0
DA:188,0
DA:189,0
DA:190,0
DA:191,0
DA:192,0
DA:193,0
DA:194,0
DA:196,0
DA:197,0
DA:198,0
DA:200,0
DA:201,0
DA:202,0
DA:203,0
DA:204,0
DA:208,0
DA:211,4
DA:212,4
DA:213,4
DA:214,0
DA:215,4
DA:216,4
DA:217,4
DA:218,4
DA:219,4
DA:220,4
DA:221,4
DA:222,1
DA:223,1
DA:224,1
DA:225,1
DA:226,0
DA:227,0
DA:228,0
DA:230,0
DA:231,0
DA:233,0
DA:237,4
DA:239,1
DA:240,1
DA:241,1
DA:242,1
DA:245,10
DA:246,9
DA:247,3
DA:248,3
DA:249,3
DA:250,3
DA:251,3
DA:252,3
DA:254,6
DA:255,6
DA:256,6
DA:257,6
DA:258,6
DA:259,6
DA:260,6
DA:262,0
DA:263,0
DA:264,0
DA:265,0
DA:266,0
DA:267,0
DA:268,0
DA:269,0
DA:270,0
DA:271,0
DA:272,0
DA:273,0
DA:274,0
DA:275,0
DA:276,0
DA:277,0
DA:278,0
DA:282,1
DA:283,1
DA:284,1
DA:286,2
DA:287,2
DA:288,2
DA:289,2
DA:290,1
DA:291,0
DA:293,0
DA:294,2
DA:295,2
DA:297,1
DA:298,1
DA:299,1
DA:301,3
DA:302,3
DA:303,3
DA:304,3
DA:305,3
DA:306,3
DA:308,9
DA:309,9
DA:310,3
DA:311,6
DA:312,3
DA:313,3
DA:314,3
DA:315,3
DA:318,3
DA:319,3
DA:320,3
DA:321,3
DA:322,0
DA:324,3
DA:325,3
DA:327,4
DA:328,4
DA:329,4
DA:331,0
DA:332,0
DA:333,0
DA:334,0
DA:336,4
DA:337,4
DA:338,4
DA:341,4
DA:342,4
DA:343,4
DA:344,4
DA:345,0
DA:348,0
DA:349,0
DA:350,0
DA:351,0
DA:352,0
DA:353,0
DA:354,0
DA:357,0
DA:358,0
DA:359,0
DA:360,0
DA:361,0
DA:362,0
DA:363,0
DA:365,0
DA:368,4
DA:369,4
DA:371,4
DA:373,4
DA:375,4
DA:376,4
DA:377,4
DA:378,4
DA:379,4
DA:380,4
DA:381,4
DA:383,4
DA:384,4
DA:385,4
DA:386,4
DA:387,4
DA:388,4
DA:389,4
DA:392,4
DA:393,4
DA:394,4
DA:395,4
DA:396,4
DA:397,4
DA:398,4
DA:401,4
DA:402,4
DA:404,4
DA:405,3
DA:406,3
DA:407,0
DA:408,4
DA:410,0
DA:411,0
DA:412,0
DA:413,0
DA:414,0
DA:416,2
DA:417,2
DA:418,0
DA:419,2
DA:421,2
DA:422,2
DA:423,0
DA:424,0
DA:425,0
DA:426,0
DA:428,0
DA:429,0
DA:430,0
DA:431,0
DA:435,0
DA:439,5
DA:440,2
DA:441,2
DA:442,2
DA:443,2
DA:444,2
DA:445,0
DA:446,0
DA:447,0
DA:449,1
DA:451,2
DA:452,2
DA:453,2
DA:455,1
DA:456,1
DA:457,0
DA:458,1
DA:459,1
DA:460,1
DA:461,1
DA:462,1
DA:463,1
DA:464,1
DA:465,1
DA:466,1
DA:467,1
DA:468,1
DA:469,1
DA:470,1
DA:471,1
DA:472,1
DA:473,2
DA:474,1
DA:475,1
DA:476,0
DA:477,0
DA:478,0
DA:479,1
DA:480,0
DA:481,0
DA:482,0
DA:483,1
DA:484,0
DA:485,0
DA:486,0
DA:487,1
DA:488,0
DA:489,0
DA:490,0
DA:491,1
DA:492,0
DA:493,0
DA:494,0
DA:495,1
DA:496,0
DA:497,0
DA:498,0
DA:499,1
DA:500,0
DA:501,0
DA:502,0
DA:503,1
DA:504,0
DA:505,0
DA:506,0
DA:507,1
DA:508,0
DA:509,0
DA:510,0
DA:511,1
DA:512,1
DA:513,1
DA:514,1
DA:515,0
DA:520,1
DA:521,0
DA:522,1
DA:523,0
DA:526,1
DA:527,1
DA:529,0
DA:532,1
DA:533,1
DA:534,1
DA:538,1
DA:539,1
DA:540,1
DA:541,0
DA:542,0
DA:544,1
DA:545,1
DA:547,0
DA:548,0
DA:549,0
DA:550,0
DA:551,0
DA:552,0
DA:553,0
DA:556,0
DA:557,0
DA:559,0
DA:563,0
DA:564,0
DA:565,0
DA:566,0
DA:567,0
DA:568,0
DA:569,0
DA:570,0
DA:571,0
DA:572,0
DA:573,0
DA:574,0
DA:575,0
DA:576,0
DA:577,0
DA:578,0
DA:579,0
DA:580,0
DA:581,0
DA:582,0
DA:583,0
DA:584,0
DA:585,0
DA:588,0
DA:589,0
DA:590,0
DA:593,0
DA:595,0
DA:596,0
DA:598,0
DA:601,0
DA:602,0
DA:606,0
DA:607,0
DA:610,0
DA:611,0
DA:614,0
DA:618,0
DA:619,0
DA:620,0
DA:621,0
DA:623,0
DA:627,0
DA:628,0
DA:630,0
DA:631,0
DA:632,0
DA:633,0
DA:634,0
DA:635,0
DA:636,0
DA:637,0
DA:638,0
DA:639,0
DA:640,0
DA:641,0
DA:642,0
DA:643,0
DA:644,0
DA:645,0
DA:646,0
DA:647,0
DA:648,0
DA:649,0
DA:650,0
DA:651,0
DA:652,0
DA:653,0
DA:654,0
DA:655,0
DA:656,0
DA:660,0
DA:661,0
DA:662,0
DA:665,1
DA:667,1
DA:668,1
DA:669,0
DA:670,1
DA:672,0
DA:675,1
DA:676,1
DA:677,1
DA:680,1
DA:681,1
DA:682,1
DA:683,1
DA:684,1
DA:685,0
DA:686,1
DA:689,1
DA:690,1
DA:691,1
DA:692,1
DA:693,1
DA:695,1
DA:696,1
DA:697,0
DA:698,1
DA:699,0
DA:706,1
DA:707,1
DA:708,1
DA:711,2
DA:719,2
DA:720,2
DA:721,2
DA:723,2
DA:724,2
DA:726,10
DA:728,10
DA:729,10
DA:731,10
DA:732,10
DA:733,3
DA:734,3
DA:735,7
DA:736,0
DA:739,2
DA:741,0
DA:743,2
DA:746,1
DA:747,1
DA:748,1
DA:749,1
DA:750,1
DA:751,0
DA:752,1
DA:761,1
DA:762,0
DA:763,0
DA:764,0
DA:765,0
DA:766,0
DA:767,0
DA:768,0
DA:769,0
DA:770,1
DA:772,1
DA:773,1
DA:774,0
DA:776,1
DA:777,1
DA:779,1
DA:780,1
DA:781,1
DA:782,1
DA:783,1
DA:784,1
DA:785,1
DA:786,1
DA:787,1
DA:788,1
DA:789,1
DA:790,0
DA:791,1
DA:792,0
DA:794,1
DA:795,1
DA:799,0
DA:800,0
DA:801,0
DA:815,0
DA:816,0
DA:817,0
DA:818,0
DA:819,0
DA:820,0
DA:821,0
DA:822,0
DA:823,0
DA:827,0
DA:828,0
DA:829,0
DA:830,0
DA:833,0
DA:834,0
DA:835,0
DA:836,0
DA:837,0
DA:840,0
DA:841,0
DA:842,0
DA:843,0
DA:844,0
DA:845,0
DA:847,0
DA:848,0
DA:856,1
DA:857,1
DA:858,1
DA:859,1
DA:860,1
DA:861,1
DA:864,1
DA:865,1
DA:866,1
DA:867,1
DA:868,1
DA:869,1
DA:870,1
DA:873,1
DA:874,1
DA:875,1
DA:876,1
DA:877,1
DA:880,1
DA:881,1
DA:882,1
DA:883,1
DA:884,1
DA:885,1
DA:888,1
DA:889,1
DA:890,1
DA:891,1
DA:892,1
DA:893,1
DA:894,1
DA:895,1
DA:896,1
DA:897,1
DA:898,1
DA:901,1
DA:902,1
DA:903,1
DA:905,1
DA:906,1
DA:908,0
DA:910,1
DA:913,1
DA:914,1
DA:915,1
DA:916,1
DA:917,1
DA:919,1
DA:920,1
DA:921,1
DA:924,1
DA:925,1
DA:928,1
DA:929,1
DA:931,0
DA:933,1
DA:936,1
DA:937,1
DA:938,1
DA:939,1
DA:940,1
DA:941,1
DA:945,1
DA:948,1
DA:949,1
DA:950,1
DA:951,1
DA:952,1
DA:953,1
DA:954,1
DA:955,1
DA:956,1
DA:957,1
DA:960,1
DA:961,1
DA:962,1
DA:965,1
DA:966,1
DA:967,1
DA:968,1
DA:969,1
DA:970,1
DA:971,1
DA:972,1
DA:973,1
DA:974,1
DA:977,1
DA:978,1
DA:979,1
DA:980,1
DA:983,1
DA:984,1
DA:985,1
DA:986,1
DA:987,1
DA:988,1
DA:991,1
DA:992,1
DA:993,1
DA:994,0
DA:995,1
DA:998,1
DA:999,1
DA:1003,1
DA:1004,1
DA:1005,1
DA:1006,1
DA:1007,1
DA:1009,1
DA:1010,1
DA:1011,1
DA:1012,1
DA:1014,0
DA:1016,1
DA:1019,1
DA:1020,1
DA:1021,1
DA:1022,1
DA:1023,1
DA:1024,1
DA:1027,1
DA:1028,1
DA:1030,0
DA:1032,1
DA:1035,1
DA:1036,1
DA:1037,1
DA:1038,1
DA:1039,1
DA:1040,1
DA:1041,1
DA:1042,1
DA:1043,1
DA:1044,1
DA:1045,0
DA:1048,1
DA:1049,1
DA:1050,1
DA:1051,0
DA:1052,1
BRF:0
BRH:0
LF:743
LH:479
end_of_record
SF:/home/justin/Projects/chess-vector-engine/src/ultra_fast_loader.rs
FN:31,_RINvMNtCsh06HHTBymxI_19chess_vector_engine17ultra_fast_loaderNtB3_15UltraFastLoader17ultra_load_binarypEB5_
FN:89,_RINvMNtCsh06HHTBymxI_19chess_vector_engine17ultra_fast_loaderNtB3_15UltraFastLoader18memory_mapped_loadpEB5_
FN:185,_RNCNvMNtCsh06HHTBymxI_19chess_vector_engine17ultra_fast_loaderNtB4_15UltraFastLoader15parse_text_data0B6_
FN:236,_RNCNvMNtCsh06HHTBymxI_19chess_vector_engine17ultra_fast_loaderNtB4_15UltraFastLoader17extract_from_json0B6_
FN:237,_RNCNvMNtCsh06HHTBymxI_19chess_vector_engine17ultra_fast_loaderNtB4_15UltraFastLoader17extract_from_jsons_0B6_
FN:152,_RNvMNtCsh06HHTBymxI_19chess_vector_engine17ultra_fast_loaderNtB2_15UltraFastLoader15parse_text_data
FN:322,_RNvMNtCsh06HHTBymxI_19chess_vector_engine17ultra_fast_loaderNtB2_15UltraFastLoader15sequential_load
FN:233,_RNvMNtCsh06HHTBymxI_19chess_vector_engine17ultra_fast_loaderNtB2_15UltraFastLoader17extract_from_json
FN:248,_RNvMNtCsh06HHTBymxI_19chess_vector_engine17ultra_fast_loaderNtB2_15UltraFastLoader19parallel_batch_load
FN:142,_RNvMNtCsh06HHTBymxI_19chess_vector_engine17ultra_fast_loaderNtB2_15UltraFastLoader23parse_decompressed_data
FN:113,_RNvMNtCsh06HHTBymxI_19chess_vector_engine17ultra_fast_loaderNtB2_15UltraFastLoader26stream_parse_memory_mapped
FN:392,_RNvNtNtCsh06HHTBymxI_19chess_vector_engine17ultra_fast_loader5testss_18test_loading_stats
FN:384,_RNvNtNtCsh06HHTBymxI_19chess_vector_engine17ultra_fast_loader5testss_31test_ultra_fast_loader_creation
FN:20,_RNvMNtCsh06HHTBymxI_19chess_vector_engine17ultra_fast_loaderNtB2_15UltraFastLoader24new_for_massive_datasets
FN:351,_RNvMNtCsh06HHTBymxI_19chess_vector_engine17ultra_fast_loaderNtB2_15UltraFastLoader9get_stats
FN:371,_RNvMs_NtCsh06HHTBymxI_19chess_vector_engine17ultra_fast_loaderNtB4_12LoadingStats12success_rate
FNDA:0,_RINvMNtCsh06HHTBymxI_19chess_vector_engine17ultra_fast_loaderNtB3_15UltraFastLoader17ultra_load_binarypEB5_
FNDA:0,_RINvMNtCsh06HHTBymxI_19chess_vector_engine17ultra_fast_loaderNtB3_15UltraFastLoader18memory_mapped_loadpEB5_
FNDA:0,_RNCNvMNtCsh06HHTBymxI_19chess_vector_engine17ultra_fast_loaderNtB4_15UltraFastLoader15parse_text_data0B6_
FNDA:0,_RNCNvMNtCsh06HHTBymxI_19chess_vector_engine17ultra_fast_loaderNtB4_15UltraFastLoader17extract_from_json0B6_
FNDA:0,_RNCNvMNtCsh06HHTBymxI_19chess_vector_engine17ultra_fast_loaderNtB4_15UltraFastLoader17extract_from_jsons_0B6_
FNDA:0,_RNvMNtCsh06HHTBymxI_19chess_vector_engine17ultra_fast_loaderNtB2_15UltraFastLoader15parse_text_data
FNDA:0,_RNvMNtCsh06HHTBymxI_19chess_vector_engine17ultra_fast_loaderNtB2_15UltraFastLoader15sequential_load
FNDA:0,_RNvMNtCsh06HHTBymxI_19chess_vector_engine17ultra_fast_loaderNtB2_15UltraFastLoader17extract_from_json
FNDA:0,_RNvMNtCsh06HHTBymxI_19chess_vector_engine17ultra_fast_loaderNtB2_15UltraFastLoader19parallel_batch_load
FNDA:0,_RNvMNtCsh06HHTBymxI_19chess_vector_engine17ultra_fast_loaderNtB2_15UltraFastLoader23parse_decompressed_data
FNDA:0,_RNvMNtCsh06HHTBymxI_19chess_vector_engine17ultra_fast_loaderNtB2_15UltraFastLoader26stream_parse_memory_mapped
FNDA:1,_RNvNtNtCsh06HHTBymxI_19chess_vector_engine17ultra_fast_loader5testss_18test_loading_stats
FNDA:1,_RNvNtNtCsh06HHTBymxI_19chess_vector_engine17ultra_fast_loader5testss_31test_ultra_fast_loader_creation
FNDA:2,_RNvMNtCsh06HHTBymxI_19chess_vector_engine17ultra_fast_loaderNtB2_15UltraFastLoader24new_for_massive_datasets
FNDA:1,_RNvMNtCsh06HHTBymxI_19chess_vector_engine17ultra_fast_loaderNtB2_15UltraFastLoader9get_stats
FNDA:1,_RNvMs_NtCsh06HHTBymxI_19chess_vector_engine17ultra_fast_loaderNtB4_12LoadingStats12success_rate
FNF:16
FNH:5
DA:20,2
DA:21,2
DA:22,2
DA:23,2
DA:24,2
DA:25,2
DA:26,2
DA:27,2
DA:28,2
DA:31,0
DA:32,0
DA:33,0
DA:34,0
DA:35,0
DA:36,0
DA:37,0
DA:39,0
DA:40,0
DA:41,0
DA:42,0
DA:44,0
DA:45,0
DA:46,0
DA:49,0
DA:52,0
DA:54,0
DA:55,0
DA:56,0
DA:57,0
DA:58,0
DA:59,0
DA:61,0
DA:65,0
DA:66,0
DA:67,0
DA:68,0
DA:69,0
DA:73,0
DA:74,0
DA:75,0
DA:76,0
DA:77,0
DA:78,0
DA:79,0
DA:80,0
DA:81,0
DA:82,0
DA:84,0
DA:86,0
DA:89,0
DA:90,0
DA:91,0
DA:92,0
DA:93,0
DA:96,0
DA:97,0
DA:99,0
DA:103,0
DA:104,0
DA:105,0
DA:106,0
DA:107,0
DA:108,0
DA:109,0
DA:110,0
DA:113,0
DA:114,0
DA:115,0
DA:116,0
DA:117,0
DA:121,0
DA:122,0
DA:123,0
DA:124,0
DA:127,0
DA:128,0
DA:129,0
DA:130,0
DA:133,0
DA:134,0
DA:135,0
DA:136,0
DA:137,0
DA:138,0
DA:139,0
DA:142,0
DA:143,0
DA:144,0
DA:145,0
DA:146,0
DA:147,0
DA:148,0
DA:149,0
DA:152,0
DA:153,0
DA:154,0
DA:155,0
DA:156,0
DA:157,0
DA:158,0
DA:159,0
DA:160,0
DA:161,0
DA:162,0
DA:163,0
DA:164,0
DA:165,0
DA:166,0
DA:167,0
DA:168,0
DA:169,0
DA:170,0
DA:171,0
DA:172,0
DA:173,0
DA:174,0
DA:175,0
DA:176,0
DA:177,0
DA:178,0
DA:179,0
DA:180,0
DA:181,0
DA:182,0
DA:183,0
DA:184,0
DA:185,0
DA:186,0
DA:188,0
DA:189,0
DA:190,0
DA:191,0
DA:194,0
DA:195,0
DA:196,0
DA:197,0
DA:198,0
DA:199,0
DA:200,0
DA:203,0
DA:204,0
DA:205,0
DA:209,0
DA:210,0
DA:211,0
DA:212,0
DA:213,0
DA:214,0
DA:215,0
DA:216,0
DA:217,0
DA:218,0
DA:219,0
DA:220,0
DA:221,0
DA:222,0
DA:225,0
DA:226,0
DA:227,0
DA:229,0
DA:230,0
DA:233,0
DA:235,0
DA:236,0
DA:237,0
DA:239,0
DA:240,0
DA:241,0
DA:242,0
DA:244,0
DA:245,0
DA:248,0
DA:249,0
DA:250,0
DA:251,0
DA:252,0
DA:253,0
DA:254,0
DA:255,0
DA:256,0
DA:257,0
DA:258,0
DA:259,0
DA:260,0
DA:261,0
DA:262,0
DA:263,0
DA:264,0
DA:265,0
DA:266,0
DA:267,0
DA:268,0
DA:269,0
DA:270,0
DA:271,0
DA:273,0
DA:274,0
DA:275,0
DA:278,0
DA:279,0
DA:280,0
DA:281,0
DA:282,0
DA:283,0
DA:284,0
DA:285,0
DA:286,0
DA:288,0
DA:289,0
DA:290,0
DA:295,0
DA:296,0
DA:297,0
DA:298,0
DA:301,0
DA:302,0
DA:303,0
DA:304,0
DA:305,0
DA:308,0
DA:309,0
DA:310,0
DA:311,0
DA:312,0
DA:313,0
DA:314,0
DA:315,0
DA:316,0
DA:317,0
DA:318,0
DA:319,0
DA:322,0
DA:323,0
DA:324,0
DA:325,0
DA:326,0
DA:327,0
DA:328,0
DA:329,0
DA:331,0
DA:332,0
DA:333,0
DA:334,0
DA:335,0
DA:336,0
DA:337,0
DA:338,0
DA:339,0
DA:341,0
DA:342,0
DA:343,0
DA:347,0
DA:348,0
DA:351,1
DA:352,1
DA:353,1
DA:354,1
DA:355,1
DA:356,1
DA:357,1
DA:358,1
DA:371,1
DA:372,1
DA:373,0
DA:374,1
DA:375,1
DA:376,1
DA:384,1
DA:385,1
DA:386,1
DA:387,1
DA:388,1
DA:389,1
DA:392,1
DA:393,1
DA:394,1
DA:395,1
DA:396,1
DA:397,1
DA:398,1
DA:399,1
DA:400,1
DA:401,1
DA:402,1
BRF:0
BRH:0
LF:288
LH:39
end_of_record
SF:/home/justin/Projects/chess-vector-engine/src/variational_autoencoder.rs
FN:251,_RNCNvMs1_NtCsh06HHTBymxI_19chess_vector_engine23variational_autoencoderNtB7_22VariationalAutoencoder10train_step0B9_
FN:261,_RNCNvMs1_NtCsh06HHTBymxI_19chess_vector_engine23variational_autoencoderNtB7_22VariationalAutoencoder10train_steps0_0B9_
FN:266,_RNCNvMs1_NtCsh06HHTBymxI_19chess_vector_engine23variational_autoencoderNtB7_22VariationalAutoencoder10train_steps1_0B9_
FN:272,_RNCNvMs1_NtCsh06HHTBymxI_19chess_vector_engine23variational_autoencoderNtB7_22VariationalAutoencoder10train_steps2_0B9_
FN:256,_RNCNvMs1_NtCsh06HHTBymxI_19chess_vector_engine23variational_autoencoderNtB7_22VariationalAutoencoder10train_steps_0B9_
FN:351,_RNCNvMs1_NtCsh06HHTBymxI_19chess_vector_engine23variational_autoencoderNtB7_22VariationalAutoencoder23evaluate_reconstruction0B9_
FN:374,_RNCNvMs1_NtCsh06HHTBymxI_19chess_vector_engine23variational_autoencoderNtB7_22VariationalAutoencoder23evaluate_reconstructions0_0B9_
FN:362,_RNCNvMs1_NtCsh06HHTBymxI_19chess_vector_engine23variational_autoencoderNtB7_22VariationalAutoencoder23evaluate_reconstructions_0B9_
FN:185,_RNCNvMs1_NtCsh06HHTBymxI_19chess_vector_engine23variational_autoencoderNtB7_22VariationalAutoencoder7forward0B9_
FN:189,_RNCNvMs1_NtCsh06HHTBymxI_19chess_vector_engine23variational_autoencoderNtB7_22VariationalAutoencoder7forwards_0B9_
FN:244,_RNvMs1_NtCsh06HHTBymxI_19chess_vector_engine23variational_autoencoderNtB5_22VariationalAutoencoder10train_step
FN:204,_RNvMs1_NtCsh06HHTBymxI_19chess_vector_engine23variational_autoencoderNtB5_22VariationalAutoencoder12compute_loss
FN:344,_RNvMs1_NtCsh06HHTBymxI_19chess_vector_engine23variational_autoencoderNtB5_22VariationalAutoencoder23evaluate_reconstruction
FN:181,_RNvMs1_NtCsh06HHTBymxI_19chess_vector_engine23variational_autoencoderNtB5_22VariationalAutoencoder7forward
FN:460,_RNvMs3_NtCsh06HHTBymxI_19chess_vector_engine23variational_autoencoderNtB5_9VAEConfig15chess_optimized
FN:451,_RNvMs3_NtCsh06HHTBymxI_19chess_vector_engine23variational_autoencoderNtB5_9VAEConfig16high_compression
FN:443,_RNvMs3_NtCsh06HHTBymxI_19chess_vector_engine23variational_autoencoderNtB5_9VAEConfig8beta_vae
FN:158,_RNCNvMs1_NtCsh06HHTBymxI_19chess_vector_engine23variational_autoencoderNtB7_22VariationalAutoencoder12init_network0B9_
FN:171,_RNCNvMs1_NtCsh06HHTBymxI_19chess_vector_engine23variational_autoencoderNtB7_22VariationalAutoencoder12init_networks0_0B9_
FN:160,_RNCNvMs1_NtCsh06HHTBymxI_19chess_vector_engine23variational_autoencoderNtB7_22VariationalAutoencoder12init_networks_0B9_
FN:306,_RNCNvMs1_NtCsh06HHTBymxI_19chess_vector_engine23variational_autoencoderNtB7_22VariationalAutoencoder13sample_latent0B9_
FN:401,_RNCNvMs1_NtCsh06HHTBymxI_19chess_vector_engine23variational_autoencoderNtB7_22VariationalAutoencoder15array_to_tensor0B9_
FN:412,_RNCNvMs1_NtCsh06HHTBymxI_19chess_vector_engine23variational_autoencoderNtB7_22VariationalAutoencoder15tensor_to_array0B9_
FN:415,_RNCNvMs1_NtCsh06HHTBymxI_19chess_vector_engine23variational_autoencoderNtB7_22VariationalAutoencoder15tensor_to_arrays_0B9_
FN:318,_RNCNvMs1_NtCsh06HHTBymxI_19chess_vector_engine23variational_autoencoderNtB7_22VariationalAutoencoder6decode0B9_
FN:285,_RNCNvMs1_NtCsh06HHTBymxI_19chess_vector_engine23variational_autoencoderNtB7_22VariationalAutoencoder6encode0B9_
FN:334,_RNCNvMs1_NtCsh06HHTBymxI_19chess_vector_engine23variational_autoencoderNtB7_22VariationalAutoencoder8generate0B9_
FN:492,_RNCNvNtNtCsh06HHTBymxI_19chess_vector_engine23variational_autoencoder5testss_21test_vae_forward_pass0B7_
FN:506,_RNCNvNtNtCsh06HHTBymxI_19chess_vector_engine23variational_autoencoder5testss_23test_vae_reconstruction0B7_
FN:79,_RNvMNtCsh06HHTBymxI_19chess_vector_engine23variational_autoencoderNtB2_18VariationalEncoder14reparameterize
FN:31,_RNvMNtCsh06HHTBymxI_19chess_vector_engine23variational_autoencoderNtB2_18VariationalEncoder3new
FN:63,_RNvMNtCsh06HHTBymxI_19chess_vector_engine23variational_autoencoderNtB2_18VariationalEncoder6encode
FN:387,_RNvMs1_NtCsh06HHTBymxI_19chess_vector_engine23variational_autoencoderNtB5_22VariationalAutoencoder10latent_dim
FN:153,_RNvMs1_NtCsh06HHTBymxI_19chess_vector_engine23variational_autoencoderNtB5_22VariationalAutoencoder12init_network
FN:294,_RNvMs1_NtCsh06HHTBymxI_19chess_vector_engine23variational_autoencoderNtB5_22VariationalAutoencoder13sample_latent
FN:392,_RNvMs1_NtCsh06HHTBymxI_19chess_vector_engine23variational_autoencoderNtB5_22VariationalAutoencoder14is_initialized
FN:397,_RNvMs1_NtCsh06HHTBymxI_19chess_vector_engine23variational_autoencoderNtB5_22VariationalAutoencoder15array_to_tensor
FN:404,_RNvMs1_NtCsh06HHTBymxI_19chess_vector_engine23variational_autoencoderNtB5_22VariationalAutoencoder15tensor_to_array
FN:324,_RNvMs1_NtCsh06HHTBymxI_19chess_vector_engine23variational_autoencoderNtB5_22VariationalAutoencoder20encode_with_sampling
FN:136,_RNvMs1_NtCsh06HHTBymxI_19chess_vector_engine23variational_autoencoderNtB5_22VariationalAutoencoder3new
FN:312,_RNvMs1_NtCsh06HHTBymxI_19chess_vector_engine23variational_autoencoderNtB5_22VariationalAutoencoder6decode
FN:279,_RNvMs1_NtCsh06HHTBymxI_19chess_vector_engine23variational_autoencoderNtB5_22VariationalAutoencoder6encode
FN:330,_RNvMs1_NtCsh06HHTBymxI_19chess_vector_engine23variational_autoencoderNtB5_22VariationalAutoencoder8generate
FN:88,_RNvMs_NtCsh06HHTBymxI_19chess_vector_engine23variational_autoencoderNtB4_18VariationalDecoder3new
FN:117,_RNvXs0_NtCsh06HHTBymxI_19chess_vector_engine23variational_autoencoderNtB5_18VariationalDecoderNtCslAqj6xCR5nr_11candle_core6Module7forward
FN:430,_RNvXs2_NtCsh06HHTBymxI_19chess_vector_engine23variational_autoencoderNtB5_9VAEConfigNtNtCs9sjCchOt1K7_4core7default7Default7default
FN:514,_RNvNtNtCsh06HHTBymxI_19chess_vector_engine23variational_autoencoder5testss_19test_vae_generation
FN:487,_RNvNtNtCsh06HHTBymxI_19chess_vector_engine23variational_autoencoder5testss_21test_vae_forward_pass
FN:477,_RNvNtNtCsh06HHTBymxI_19chess_vector_engine23variational_autoencoder5testss_23test_vae_initialization
FN:501,_RNvNtNtCsh06HHTBymxI_19chess_vector_engine23variational_autoencoder5testss_23test_vae_reconstruction
FNDA:0,_RNCNvMs1_NtCsh06HHTBymxI_19chess_vector_engine23variational_autoencoderNtB7_22VariationalAutoencoder10train_step0B9_
FNDA:0,_RNCNvMs1_NtCsh06HHTBymxI_19chess_vector_engine23variational_autoencoderNtB7_22VariationalAutoencoder10train_steps0_0B9_
FNDA:0,_RNCNvMs1_NtCsh06HHTBymxI_19chess_vector_engine23variational_autoencoderNtB7_22VariationalAutoencoder10train_steps1_0B9_
FNDA:0,_RNCNvMs1_NtCsh06HHTBymxI_19chess_vector_engine23variational_autoencoderNtB7_22VariationalAutoencoder10train_steps2_0B9_
FNDA:0,_RNCNvMs1_NtCsh06HHTBymxI_19chess_vector_engine23variational_autoencoderNtB7_22VariationalAutoencoder10train_steps_0B9_
FNDA:0,_RNCNvMs1_NtCsh06HHTBymxI_19chess_vector_engine23variational_autoencoderNtB7_22VariationalAutoencoder23evaluate_reconstruction0B9_
FNDA:0,_RNCNvMs1_NtCsh06HHTBymxI_19chess_vector_engine23variational_autoencoderNtB7_22VariationalAutoencoder23evaluate_reconstructions0_0B9_
FNDA:0,_RNCNvMs1_NtCsh06HHTBymxI_19chess_vector_engine23variational_autoencoderNtB7_22VariationalAutoencoder23evaluate_reconstructions_0B9_
FNDA:0,_RNCNvMs1_NtCsh06HHTBymxI_19chess_vector_engine23variational_autoencoderNtB7_22VariationalAutoencoder7forward0B9_
FNDA:0,_RNCNvMs1_NtCsh06HHTBymxI_19chess_vector_engine23variational_autoencoderNtB7_22VariationalAutoencoder7forwards_0B9_
FNDA:0,_RNvMs1_NtCsh06HHTBymxI_19chess_vector_engine23variational_autoencoderNtB5_22VariationalAutoencoder10train_step
FNDA:0,_RNvMs1_NtCsh06HHTBymxI_19chess_vector_engine23variational_autoencoderNtB5_22VariationalAutoencoder12compute_loss
FNDA:0,_RNvMs1_NtCsh06HHTBymxI_19chess_vector_engine23variational_autoencoderNtB5_22VariationalAutoencoder23evaluate_reconstruction
FNDA:0,_RNvMs1_NtCsh06HHTBymxI_19chess_vector_engine23variational_autoencoderNtB5_22VariationalAutoencoder7forward
FNDA:0,_RNvMs3_NtCsh06HHTBymxI_19chess_vector_engine23variational_autoencoderNtB5_9VAEConfig15chess_optimized
FNDA:0,_RNvMs3_NtCsh06HHTBymxI_19chess_vector_engine23variational_autoencoderNtB5_9VAEConfig16high_compression
FNDA:0,_RNvMs3_NtCsh06HHTBymxI_19chess_vector_engine23variational_autoencoderNtB5_9VAEConfig8beta_vae
FNDA:0,_RNCNvMs1_NtCsh06HHTBymxI_19chess_vector_engine23variational_autoencoderNtB7_22VariationalAutoencoder12init_network0B9_
FNDA:0,_RNCNvMs1_NtCsh06HHTBymxI_19chess_vector_engine23variational_autoencoderNtB7_22VariationalAutoencoder12init_networks0_0B9_
FNDA:0,_RNCNvMs1_NtCsh06HHTBymxI_19chess_vector_engine23variational_autoencoderNtB7_22VariationalAutoencoder12init_networks_0B9_
FNDA:0,_RNCNvMs1_NtCsh06HHTBymxI_19chess_vector_engine23variational_autoencoderNtB7_22VariationalAutoencoder13sample_latent0B9_
FNDA:0,_RNCNvMs1_NtCsh06HHTBymxI_19chess_vector_engine23variational_autoencoderNtB7_22VariationalAutoencoder15array_to_tensor0B9_
FNDA:0,_RNCNvMs1_NtCsh06HHTBymxI_19chess_vector_engine23variational_autoencoderNtB7_22VariationalAutoencoder15tensor_to_array0B9_
FNDA:0,_RNCNvMs1_NtCsh06HHTBymxI_19chess_vector_engine23variational_autoencoderNtB7_22VariationalAutoencoder15tensor_to_arrays_0B9_
FNDA:0,_RNCNvMs1_NtCsh06HHTBymxI_19chess_vector_engine23variational_autoencoderNtB7_22VariationalAutoencoder6decode0B9_
FNDA:0,_RNCNvMs1_NtCsh06HHTBymxI_19chess_vector_engine23variational_autoencoderNtB7_22VariationalAutoencoder6encode0B9_
FNDA:12,_RNCNvMs1_NtCsh06HHTBymxI_19chess_vector_engine23variational_autoencoderNtB7_22VariationalAutoencoder8generate0B9_
FNDA:256,_RNCNvNtNtCsh06HHTBymxI_19chess_vector_engine23variational_autoencoder5testss_21test_vae_forward_pass0B7_
FNDA:64,_RNCNvNtNtCsh06HHTBymxI_19chess_vector_engine23variational_autoencoder5testss_23test_vae_reconstruction0B7_
FNDA:2,_RNvMNtCsh06HHTBymxI_19chess_vector_engine23variational_autoencoderNtB2_18VariationalEncoder14reparameterize
FNDA:4,_RNvMNtCsh06HHTBymxI_19chess_vector_engine23variational_autoencoderNtB2_18VariationalEncoder3new
FNDA:2,_RNvMNtCsh06HHTBymxI_19chess_vector_engine23variational_autoencoderNtB2_18VariationalEncoder6encode
FNDA:1,_RNvMs1_NtCsh06HHTBymxI_19chess_vector_engine23variational_autoencoderNtB5_22VariationalAutoencoder10latent_dim
FNDA:4,_RNvMs1_NtCsh06HHTBymxI_19chess_vector_engine23variational_autoencoderNtB5_22VariationalAutoencoder12init_network
FNDA:2,_RNvMs1_NtCsh06HHTBymxI_19chess_vector_engine23variational_autoencoderNtB5_22VariationalAutoencoder13sample_latent
FNDA:1,_RNvMs1_NtCsh06HHTBymxI_19chess_vector_engine23variational_autoencoderNtB5_22VariationalAutoencoder14is_initialized
FNDA:8,_RNvMs1_NtCsh06HHTBymxI_19chess_vector_engine23variational_autoencoderNtB5_22VariationalAutoencoder15array_to_tensor
FNDA:8,_RNvMs1_NtCsh06HHTBymxI_19chess_vector_engine23variational_autoencoderNtB5_22VariationalAutoencoder15tensor_to_array
FNDA:2,_RNvMs1_NtCsh06HHTBymxI_19chess_vector_engine23variational_autoencoderNtB5_22VariationalAutoencoder20encode_with_sampling
FNDA:4,_RNvMs1_NtCsh06HHTBymxI_19chess_vector_engine23variational_autoencoderNtB5_22VariationalAutoencoder3new
FNDA:2,_RNvMs1_NtCsh06HHTBymxI_19chess_vector_engine23variational_autoencoderNtB5_22VariationalAutoencoder6decode
FNDA:2,_RNvMs1_NtCsh06HHTBymxI_19chess_vector_engine23variational_autoencoderNtB5_22VariationalAutoencoder6encode
FNDA:1,_RNvMs1_NtCsh06HHTBymxI_19chess_vector_engine23variational_autoencoderNtB5_22VariationalAutoencoder8generate
FNDA:4,_RNvMs_NtCsh06HHTBymxI_19chess_vector_engine23variational_autoencoderNtB4_18VariationalDecoder3new
FNDA:2,_RNvXs0_NtCsh06HHTBymxI_19chess_vector_engine23variational_autoencoderNtB5_18VariationalDecoderNtCslAqj6xCR5nr_11candle_core6Module7forward
FNDA:4,_RNvXs2_NtCsh06HHTBymxI_19chess_vector_engine23variational_autoencoderNtB5_9VAEConfigNtNtCs9sjCchOt1K7_4core7default7Default7default
FNDA:1,_RNvNtNtCsh06HHTBymxI_19chess_vector_engine23variational_autoencoder5testss_19test_vae_generation
FNDA:1,_RNvNtNtCsh06HHTBymxI_19chess_vector_engine23variational_autoencoder5testss_21test_vae_forward_pass
FNDA:1,_RNvNtNtCsh06HHTBymxI_19chess_vector_engine23variational_autoencoder5testss_23test_vae_initialization
FNDA:1,_RNvNtNtCsh06HHTBymxI_19chess_vector_engine23variational_autoencoder5testss_23test_vae_reconstruction
FNF:50
FNH:24
DA:31,4
DA:32,4
DA:33,4
DA:34,4
DA:35,4
DA:36,4
DA:37,4
DA:38,4
DA:41,12
DA:42,12
DA:43,12
DA:44,12
DA:45,12
DA:46,12
DA:47,12
DA:48,12
DA:52,4
DA:53,4
DA:55,4
DA:56,4
DA:57,4
DA:58,4
DA:59,4
DA:60,4
DA:63,2
DA:64,2
DA:67,8
DA:68,6
DA:72,2
DA:73,2
DA:75,2
DA:76,2
DA:79,2
DA:80,2
DA:81,2
DA:82,2
DA:83,2
DA:84,2
DA:88,4
DA:89,4
DA:90,4
DA:91,4
DA:92,4
DA:93,4
DA:94,4
DA:95,4
DA:98,12
DA:99,12
DA:100,12
DA:101,12
DA:102,12
DA:103,12
DA:104,12
DA:105,12
DA:109,4
DA:110,4
DA:111,4
DA:112,4
DA:113,4
DA:117,2
DA:118,2
DA:121,8
DA:122,8
DA:123,8
DA:124,6
DA:127,2
DA:131,2
DA:132,2
DA:136,4
DA:137,4
DA:138,4
DA:139,4
DA:140,4
DA:141,4
DA:142,4
DA:143,4
DA:144,4
DA:145,4
DA:146,4
DA:147,4
DA:148,4
DA:149,4
DA:150,4
DA:153,4
DA:154,4
DA:156,4
DA:157,4
DA:158,4
DA:159,4
DA:160,4
DA:163,4
DA:164,4
DA:165,4
DA:166,4
DA:167,4
DA:168,4
DA:169,4
DA:170,4
DA:171,4
DA:173,4
DA:174,4
DA:175,4
DA:176,4
DA:177,4
DA:178,4
DA:181,0
DA:182,0
DA:183,0
DA:184,0
DA:185,0
DA:186,0
DA:187,0
DA:188,0
DA:189,0
DA:192,0
DA:195,0
DA:198,0
DA:200,0
DA:201,0
DA:204,0
DA:205,0
DA:206,0
DA:207,0
DA:208,0
DA:209,0
DA:210,0
DA:211,0
DA:214,0
DA:215,0
DA:216,0
DA:217,0
DA:218,0
DA:221,0
DA:222,0
DA:223,0
DA:224,0
DA:225,0
DA:226,0
DA:227,0
DA:228,0
DA:229,0
DA:230,0
DA:231,0
DA:232,0
DA:236,0
DA:237,0
DA:238,0
DA:240,0
DA:241,0
DA:244,0
DA:246,0
DA:249,0
DA:250,0
DA:251,0
DA:254,0
DA:255,0
DA:256,0
DA:259,0
DA:260,0
DA:261,0
DA:264,0
DA:265,0
DA:266,0
DA:269,0
DA:270,0
DA:271,0
DA:272,0
DA:275,0
DA:276,0
DA:279,2
DA:280,2
DA:282,2
DA:283,2
DA:284,2
DA:285,2
DA:287,2
DA:288,2
DA:290,2
DA:291,2
DA:294,2
DA:295,2
DA:296,2
DA:297,2
DA:298,2
DA:299,2
DA:301,2
DA:302,2
DA:304,2
DA:305,2
DA:306,2
DA:308,2
DA:309,2
DA:312,2
DA:313,2
DA:315,2
DA:316,2
DA:317,2
DA:318,2
DA:320,2
DA:321,2
DA:324,2
DA:325,2
DA:326,2
DA:327,2
DA:330,1
DA:331,1
DA:334,12
DA:336,12
DA:337,12
DA:338,12
DA:339,1
DA:340,1
DA:341,1
DA:344,0
DA:345,0
DA:346,0
DA:347,0
DA:348,0
DA:349,0
DA:350,0
DA:351,0
DA:353,0
DA:356,0
DA:357,0
DA:358,0
DA:359,0
DA:360,0
DA:361,0
DA:362,0
DA:363,0
DA:364,0
DA:365,0
DA:366,0
DA:367,0
DA:368,0
DA:369,0
DA:370,0
DA:371,0
DA:372,0
DA:373,0
DA:374,0
DA:375,0
DA:376,0
DA:377,0
DA:378,0
DA:379,0
DA:380,0
DA:381,0
DA:382,0
DA:383,0
DA:384,0
DA:387,1
DA:388,1
DA:389,1
DA:392,1
DA:393,1
DA:394,1
DA:397,8
DA:398,8
DA:399,8
DA:400,8
DA:401,8
DA:402,8
DA:404,8
DA:405,8
DA:406,8
DA:407,0
DA:408,8
DA:410,8
DA:411,8
DA:412,8
DA:414,8
DA:415,8
DA:416,8
DA:430,4
DA:431,4
DA:432,4
DA:433,4
DA:434,4
DA:435,4
DA:436,4
DA:437,4
DA:438,4
DA:443,0
DA:444,0
DA:445,0
DA:446,0
DA:447,0
DA:448,0
DA:451,0
DA:452,0
DA:453,0
DA:454,0
DA:455,0
DA:456,0
DA:457,0
DA:460,0
DA:461,0
DA:462,0
DA:463,0
DA:464,0
DA:465,0
DA:466,0
DA:467,0
DA:468,0
DA:477,1
DA:478,1
DA:479,1
DA:480,1
DA:481,1
DA:482,1
DA:483,1
DA:484,1
DA:487,1
DA:488,1
DA:489,1
DA:490,1
DA:491,1
DA:492,256
DA:493,1
DA:494,1
DA:495,1
DA:496,1
DA:497,1
DA:498,1
DA:501,1
DA:502,1
DA:503,1
DA:504,1
DA:505,1
DA:506,64
DA:507,1
DA:508,1
DA:509,1
DA:510,1
DA:511,1
DA:514,1
DA:515,1
DA:516,1
DA:517,1
DA:518,1
DA:519,1
DA:520,1
DA:522,1
DA:523,1
DA:524,1
BRF:0
BRH:0
LF:369
LH:225
end_of_record